
STM-ESP_AT_BLE_LIBRARY.elf:     file format elf32-littlearm

Sections:
Idx Name          Size      VMA       LMA       File off  Algn
  0 .isr_vector   00000194  08000000  08000000  00001000  2**0
                  CONTENTS, ALLOC, LOAD, READONLY, DATA
  1 .text         00001d24  08000194  08000194  00001194  2**2
                  CONTENTS, ALLOC, LOAD, READONLY, CODE
  2 .rodata       00000018  08001eb8  08001eb8  00002eb8  2**2
                  CONTENTS, ALLOC, LOAD, READONLY, DATA
  3 .ARM.extab    00000000  08001ed0  08001ed0  0000300c  2**0
                  CONTENTS, READONLY
  4 .ARM          00000008  08001ed0  08001ed0  00002ed0  2**2
                  CONTENTS, ALLOC, LOAD, READONLY, DATA
  5 .preinit_array 00000000  08001ed8  08001ed8  0000300c  2**0
                  CONTENTS, ALLOC, LOAD, DATA
  6 .init_array   00000004  08001ed8  08001ed8  00002ed8  2**2
                  CONTENTS, ALLOC, LOAD, READONLY, DATA
  7 .fini_array   00000004  08001edc  08001edc  00002edc  2**2
                  CONTENTS, ALLOC, LOAD, READONLY, DATA
  8 .data         0000000c  20000000  08001ee0  00003000  2**2
                  CONTENTS, ALLOC, LOAD, DATA
  9 .bss          000000b0  2000000c  08001eec  0000300c  2**2
                  ALLOC
 10 ._user_heap_stack 00000604  200000bc  08001eec  000030bc  2**0
                  ALLOC
 11 .ARM.attributes 00000030  00000000  00000000  0000300c  2**0
                  CONTENTS, READONLY
 12 .debug_info   000070bc  00000000  00000000  0000303c  2**0
                  CONTENTS, READONLY, DEBUGGING, OCTETS
 13 .debug_abbrev 000012b3  00000000  00000000  0000a0f8  2**0
                  CONTENTS, READONLY, DEBUGGING, OCTETS
 14 .debug_aranges 00000630  00000000  00000000  0000b3b0  2**3
                  CONTENTS, READONLY, DEBUGGING, OCTETS
 15 .debug_rnglists 000004b9  00000000  00000000  0000b9e0  2**0
                  CONTENTS, READONLY, DEBUGGING, OCTETS
 16 .debug_macro  0001477f  00000000  00000000  0000be99  2**0
                  CONTENTS, READONLY, DEBUGGING, OCTETS
 17 .debug_line   000074fd  00000000  00000000  00020618  2**0
                  CONTENTS, READONLY, DEBUGGING, OCTETS
 18 .debug_str    000813ba  00000000  00000000  00027b15  2**0
                  CONTENTS, READONLY, DEBUGGING, OCTETS
 19 .comment      00000043  00000000  00000000  000a8ecf  2**0
                  CONTENTS, READONLY
 20 .debug_frame  0000185c  00000000  00000000  000a8f14  2**2
                  CONTENTS, READONLY, DEBUGGING, OCTETS
 21 .debug_line_str 00000072  00000000  00000000  000aa770  2**0
                  CONTENTS, READONLY, DEBUGGING, OCTETS

Disassembly of section .text:

08000194 <__do_global_dtors_aux>:
 8000194:	b510      	push	{r4, lr}
 8000196:	4c05      	ldr	r4, [pc, #20]	@ (80001ac <__do_global_dtors_aux+0x18>)
 8000198:	7823      	ldrb	r3, [r4, #0]
 800019a:	b933      	cbnz	r3, 80001aa <__do_global_dtors_aux+0x16>
 800019c:	4b04      	ldr	r3, [pc, #16]	@ (80001b0 <__do_global_dtors_aux+0x1c>)
 800019e:	b113      	cbz	r3, 80001a6 <__do_global_dtors_aux+0x12>
 80001a0:	4804      	ldr	r0, [pc, #16]	@ (80001b4 <__do_global_dtors_aux+0x20>)
 80001a2:	f3af 8000 	nop.w
 80001a6:	2301      	movs	r3, #1
 80001a8:	7023      	strb	r3, [r4, #0]
 80001aa:	bd10      	pop	{r4, pc}
 80001ac:	2000000c 	.word	0x2000000c
 80001b0:	00000000 	.word	0x00000000
 80001b4:	08001ea0 	.word	0x08001ea0

080001b8 <frame_dummy>:
 80001b8:	b508      	push	{r3, lr}
 80001ba:	4b03      	ldr	r3, [pc, #12]	@ (80001c8 <frame_dummy+0x10>)
 80001bc:	b11b      	cbz	r3, 80001c6 <frame_dummy+0xe>
 80001be:	4903      	ldr	r1, [pc, #12]	@ (80001cc <frame_dummy+0x14>)
 80001c0:	4803      	ldr	r0, [pc, #12]	@ (80001d0 <frame_dummy+0x18>)
 80001c2:	f3af 8000 	nop.w
 80001c6:	bd08      	pop	{r3, pc}
 80001c8:	00000000 	.word	0x00000000
 80001cc:	20000010 	.word	0x20000010
 80001d0:	08001ea0 	.word	0x08001ea0

080001d4 <__aeabi_uldivmod>:
 80001d4:	b953      	cbnz	r3, 80001ec <__aeabi_uldivmod+0x18>
 80001d6:	b94a      	cbnz	r2, 80001ec <__aeabi_uldivmod+0x18>
 80001d8:	2900      	cmp	r1, #0
 80001da:	bf08      	it	eq
 80001dc:	2800      	cmpeq	r0, #0
 80001de:	bf1c      	itt	ne
 80001e0:	f04f 31ff 	movne.w	r1, #4294967295
 80001e4:	f04f 30ff 	movne.w	r0, #4294967295
 80001e8:	f000 b988 	b.w	80004fc <__aeabi_idiv0>
 80001ec:	f1ad 0c08 	sub.w	ip, sp, #8
 80001f0:	e96d ce04 	strd	ip, lr, [sp, #-16]!
 80001f4:	f000 f806 	bl	8000204 <__udivmoddi4>
 80001f8:	f8dd e004 	ldr.w	lr, [sp, #4]
 80001fc:	e9dd 2302 	ldrd	r2, r3, [sp, #8]
 8000200:	b004      	add	sp, #16
 8000202:	4770      	bx	lr

08000204 <__udivmoddi4>:
 8000204:	e92d 47f0 	stmdb	sp!, {r4, r5, r6, r7, r8, r9, sl, lr}
 8000208:	9d08      	ldr	r5, [sp, #32]
 800020a:	468e      	mov	lr, r1
 800020c:	4604      	mov	r4, r0
 800020e:	4688      	mov	r8, r1
 8000210:	2b00      	cmp	r3, #0
 8000212:	d14a      	bne.n	80002aa <__udivmoddi4+0xa6>
 8000214:	428a      	cmp	r2, r1
 8000216:	4617      	mov	r7, r2
 8000218:	d962      	bls.n	80002e0 <__udivmoddi4+0xdc>
 800021a:	fab2 f682 	clz	r6, r2
 800021e:	b14e      	cbz	r6, 8000234 <__udivmoddi4+0x30>
 8000220:	f1c6 0320 	rsb	r3, r6, #32
 8000224:	fa01 f806 	lsl.w	r8, r1, r6
 8000228:	fa20 f303 	lsr.w	r3, r0, r3
 800022c:	40b7      	lsls	r7, r6
 800022e:	ea43 0808 	orr.w	r8, r3, r8
 8000232:	40b4      	lsls	r4, r6
 8000234:	ea4f 4e17 	mov.w	lr, r7, lsr #16
 8000238:	fa1f fc87 	uxth.w	ip, r7
 800023c:	fbb8 f1fe 	udiv	r1, r8, lr
 8000240:	0c23      	lsrs	r3, r4, #16
 8000242:	fb0e 8811 	mls	r8, lr, r1, r8
 8000246:	ea43 4308 	orr.w	r3, r3, r8, lsl #16
 800024a:	fb01 f20c 	mul.w	r2, r1, ip
 800024e:	429a      	cmp	r2, r3
 8000250:	d909      	bls.n	8000266 <__udivmoddi4+0x62>
 8000252:	18fb      	adds	r3, r7, r3
 8000254:	f101 30ff 	add.w	r0, r1, #4294967295
 8000258:	f080 80ea 	bcs.w	8000430 <__udivmoddi4+0x22c>
 800025c:	429a      	cmp	r2, r3
 800025e:	f240 80e7 	bls.w	8000430 <__udivmoddi4+0x22c>
 8000262:	3902      	subs	r1, #2
 8000264:	443b      	add	r3, r7
 8000266:	1a9a      	subs	r2, r3, r2
 8000268:	b2a3      	uxth	r3, r4
 800026a:	fbb2 f0fe 	udiv	r0, r2, lr
 800026e:	fb0e 2210 	mls	r2, lr, r0, r2
 8000272:	ea43 4302 	orr.w	r3, r3, r2, lsl #16
 8000276:	fb00 fc0c 	mul.w	ip, r0, ip
 800027a:	459c      	cmp	ip, r3
 800027c:	d909      	bls.n	8000292 <__udivmoddi4+0x8e>
 800027e:	18fb      	adds	r3, r7, r3
 8000280:	f100 32ff 	add.w	r2, r0, #4294967295
 8000284:	f080 80d6 	bcs.w	8000434 <__udivmoddi4+0x230>
 8000288:	459c      	cmp	ip, r3
 800028a:	f240 80d3 	bls.w	8000434 <__udivmoddi4+0x230>
 800028e:	443b      	add	r3, r7
 8000290:	3802      	subs	r0, #2
 8000292:	ea40 4001 	orr.w	r0, r0, r1, lsl #16
 8000296:	eba3 030c 	sub.w	r3, r3, ip
 800029a:	2100      	movs	r1, #0
 800029c:	b11d      	cbz	r5, 80002a6 <__udivmoddi4+0xa2>
 800029e:	40f3      	lsrs	r3, r6
 80002a0:	2200      	movs	r2, #0
 80002a2:	e9c5 3200 	strd	r3, r2, [r5]
 80002a6:	e8bd 87f0 	ldmia.w	sp!, {r4, r5, r6, r7, r8, r9, sl, pc}
 80002aa:	428b      	cmp	r3, r1
 80002ac:	d905      	bls.n	80002ba <__udivmoddi4+0xb6>
 80002ae:	b10d      	cbz	r5, 80002b4 <__udivmoddi4+0xb0>
 80002b0:	e9c5 0100 	strd	r0, r1, [r5]
 80002b4:	2100      	movs	r1, #0
 80002b6:	4608      	mov	r0, r1
 80002b8:	e7f5      	b.n	80002a6 <__udivmoddi4+0xa2>
 80002ba:	fab3 f183 	clz	r1, r3
 80002be:	2900      	cmp	r1, #0
 80002c0:	d146      	bne.n	8000350 <__udivmoddi4+0x14c>
 80002c2:	4573      	cmp	r3, lr
 80002c4:	d302      	bcc.n	80002cc <__udivmoddi4+0xc8>
 80002c6:	4282      	cmp	r2, r0
 80002c8:	f200 8105 	bhi.w	80004d6 <__udivmoddi4+0x2d2>
 80002cc:	1a84      	subs	r4, r0, r2
 80002ce:	eb6e 0203 	sbc.w	r2, lr, r3
 80002d2:	2001      	movs	r0, #1
 80002d4:	4690      	mov	r8, r2
 80002d6:	2d00      	cmp	r5, #0
 80002d8:	d0e5      	beq.n	80002a6 <__udivmoddi4+0xa2>
 80002da:	e9c5 4800 	strd	r4, r8, [r5]
 80002de:	e7e2      	b.n	80002a6 <__udivmoddi4+0xa2>
 80002e0:	2a00      	cmp	r2, #0
 80002e2:	f000 8090 	beq.w	8000406 <__udivmoddi4+0x202>
 80002e6:	fab2 f682 	clz	r6, r2
 80002ea:	2e00      	cmp	r6, #0
 80002ec:	f040 80a4 	bne.w	8000438 <__udivmoddi4+0x234>
 80002f0:	1a8a      	subs	r2, r1, r2
 80002f2:	0c03      	lsrs	r3, r0, #16
 80002f4:	ea4f 4e17 	mov.w	lr, r7, lsr #16
 80002f8:	b280      	uxth	r0, r0
 80002fa:	b2bc      	uxth	r4, r7
 80002fc:	2101      	movs	r1, #1
 80002fe:	fbb2 fcfe 	udiv	ip, r2, lr
 8000302:	fb0e 221c 	mls	r2, lr, ip, r2
 8000306:	ea43 4302 	orr.w	r3, r3, r2, lsl #16
 800030a:	fb04 f20c 	mul.w	r2, r4, ip
 800030e:	429a      	cmp	r2, r3
 8000310:	d907      	bls.n	8000322 <__udivmoddi4+0x11e>
 8000312:	18fb      	adds	r3, r7, r3
 8000314:	f10c 38ff 	add.w	r8, ip, #4294967295
 8000318:	d202      	bcs.n	8000320 <__udivmoddi4+0x11c>
 800031a:	429a      	cmp	r2, r3
 800031c:	f200 80e0 	bhi.w	80004e0 <__udivmoddi4+0x2dc>
 8000320:	46c4      	mov	ip, r8
 8000322:	1a9b      	subs	r3, r3, r2
 8000324:	fbb3 f2fe 	udiv	r2, r3, lr
 8000328:	fb0e 3312 	mls	r3, lr, r2, r3
 800032c:	ea40 4303 	orr.w	r3, r0, r3, lsl #16
 8000330:	fb02 f404 	mul.w	r4, r2, r4
 8000334:	429c      	cmp	r4, r3
 8000336:	d907      	bls.n	8000348 <__udivmoddi4+0x144>
 8000338:	18fb      	adds	r3, r7, r3
 800033a:	f102 30ff 	add.w	r0, r2, #4294967295
 800033e:	d202      	bcs.n	8000346 <__udivmoddi4+0x142>
 8000340:	429c      	cmp	r4, r3
 8000342:	f200 80ca 	bhi.w	80004da <__udivmoddi4+0x2d6>
 8000346:	4602      	mov	r2, r0
 8000348:	1b1b      	subs	r3, r3, r4
 800034a:	ea42 400c 	orr.w	r0, r2, ip, lsl #16
 800034e:	e7a5      	b.n	800029c <__udivmoddi4+0x98>
 8000350:	f1c1 0620 	rsb	r6, r1, #32
 8000354:	408b      	lsls	r3, r1
 8000356:	fa22 f706 	lsr.w	r7, r2, r6
 800035a:	431f      	orrs	r7, r3
 800035c:	fa0e f401 	lsl.w	r4, lr, r1
 8000360:	fa20 f306 	lsr.w	r3, r0, r6
 8000364:	fa2e fe06 	lsr.w	lr, lr, r6
 8000368:	ea4f 4917 	mov.w	r9, r7, lsr #16
 800036c:	4323      	orrs	r3, r4
 800036e:	fa00 f801 	lsl.w	r8, r0, r1
 8000372:	fa1f fc87 	uxth.w	ip, r7
 8000376:	fbbe f0f9 	udiv	r0, lr, r9
 800037a:	0c1c      	lsrs	r4, r3, #16
 800037c:	fb09 ee10 	mls	lr, r9, r0, lr
 8000380:	ea44 440e 	orr.w	r4, r4, lr, lsl #16
 8000384:	fb00 fe0c 	mul.w	lr, r0, ip
 8000388:	45a6      	cmp	lr, r4
 800038a:	fa02 f201 	lsl.w	r2, r2, r1
 800038e:	d909      	bls.n	80003a4 <__udivmoddi4+0x1a0>
 8000390:	193c      	adds	r4, r7, r4
 8000392:	f100 3aff 	add.w	sl, r0, #4294967295
 8000396:	f080 809c 	bcs.w	80004d2 <__udivmoddi4+0x2ce>
 800039a:	45a6      	cmp	lr, r4
 800039c:	f240 8099 	bls.w	80004d2 <__udivmoddi4+0x2ce>
 80003a0:	3802      	subs	r0, #2
 80003a2:	443c      	add	r4, r7
 80003a4:	eba4 040e 	sub.w	r4, r4, lr
 80003a8:	fa1f fe83 	uxth.w	lr, r3
 80003ac:	fbb4 f3f9 	udiv	r3, r4, r9
 80003b0:	fb09 4413 	mls	r4, r9, r3, r4
 80003b4:	ea4e 4404 	orr.w	r4, lr, r4, lsl #16
 80003b8:	fb03 fc0c 	mul.w	ip, r3, ip
 80003bc:	45a4      	cmp	ip, r4
 80003be:	d908      	bls.n	80003d2 <__udivmoddi4+0x1ce>
 80003c0:	193c      	adds	r4, r7, r4
 80003c2:	f103 3eff 	add.w	lr, r3, #4294967295
 80003c6:	f080 8082 	bcs.w	80004ce <__udivmoddi4+0x2ca>
 80003ca:	45a4      	cmp	ip, r4
 80003cc:	d97f      	bls.n	80004ce <__udivmoddi4+0x2ca>
 80003ce:	3b02      	subs	r3, #2
 80003d0:	443c      	add	r4, r7
 80003d2:	ea43 4000 	orr.w	r0, r3, r0, lsl #16
 80003d6:	eba4 040c 	sub.w	r4, r4, ip
 80003da:	fba0 ec02 	umull	lr, ip, r0, r2
 80003de:	4564      	cmp	r4, ip
 80003e0:	4673      	mov	r3, lr
 80003e2:	46e1      	mov	r9, ip
 80003e4:	d362      	bcc.n	80004ac <__udivmoddi4+0x2a8>
 80003e6:	d05f      	beq.n	80004a8 <__udivmoddi4+0x2a4>
 80003e8:	b15d      	cbz	r5, 8000402 <__udivmoddi4+0x1fe>
 80003ea:	ebb8 0203 	subs.w	r2, r8, r3
 80003ee:	eb64 0409 	sbc.w	r4, r4, r9
 80003f2:	fa04 f606 	lsl.w	r6, r4, r6
 80003f6:	fa22 f301 	lsr.w	r3, r2, r1
 80003fa:	431e      	orrs	r6, r3
 80003fc:	40cc      	lsrs	r4, r1
 80003fe:	e9c5 6400 	strd	r6, r4, [r5]
 8000402:	2100      	movs	r1, #0
 8000404:	e74f      	b.n	80002a6 <__udivmoddi4+0xa2>
 8000406:	fbb1 fcf2 	udiv	ip, r1, r2
 800040a:	0c01      	lsrs	r1, r0, #16
 800040c:	ea41 410e 	orr.w	r1, r1, lr, lsl #16
 8000410:	b280      	uxth	r0, r0
 8000412:	ea40 4201 	orr.w	r2, r0, r1, lsl #16
 8000416:	463b      	mov	r3, r7
 8000418:	4638      	mov	r0, r7
 800041a:	463c      	mov	r4, r7
 800041c:	46b8      	mov	r8, r7
 800041e:	46be      	mov	lr, r7
 8000420:	2620      	movs	r6, #32
 8000422:	fbb1 f1f7 	udiv	r1, r1, r7
 8000426:	eba2 0208 	sub.w	r2, r2, r8
 800042a:	ea41 410c 	orr.w	r1, r1, ip, lsl #16
 800042e:	e766      	b.n	80002fe <__udivmoddi4+0xfa>
 8000430:	4601      	mov	r1, r0
 8000432:	e718      	b.n	8000266 <__udivmoddi4+0x62>
 8000434:	4610      	mov	r0, r2
 8000436:	e72c      	b.n	8000292 <__udivmoddi4+0x8e>
 8000438:	f1c6 0220 	rsb	r2, r6, #32
 800043c:	fa2e f302 	lsr.w	r3, lr, r2
 8000440:	40b7      	lsls	r7, r6
 8000442:	40b1      	lsls	r1, r6
 8000444:	fa20 f202 	lsr.w	r2, r0, r2
 8000448:	ea4f 4e17 	mov.w	lr, r7, lsr #16
 800044c:	430a      	orrs	r2, r1
 800044e:	fbb3 f8fe 	udiv	r8, r3, lr
 8000452:	b2bc      	uxth	r4, r7
 8000454:	fb0e 3318 	mls	r3, lr, r8, r3
 8000458:	0c11      	lsrs	r1, r2, #16
 800045a:	ea41 4103 	orr.w	r1, r1, r3, lsl #16
 800045e:	fb08 f904 	mul.w	r9, r8, r4
 8000462:	40b0      	lsls	r0, r6
 8000464:	4589      	cmp	r9, r1
 8000466:	ea4f 4310 	mov.w	r3, r0, lsr #16
 800046a:	b280      	uxth	r0, r0
 800046c:	d93e      	bls.n	80004ec <__udivmoddi4+0x2e8>
 800046e:	1879      	adds	r1, r7, r1
 8000470:	f108 3cff 	add.w	ip, r8, #4294967295
 8000474:	d201      	bcs.n	800047a <__udivmoddi4+0x276>
 8000476:	4589      	cmp	r9, r1
 8000478:	d81f      	bhi.n	80004ba <__udivmoddi4+0x2b6>
 800047a:	eba1 0109 	sub.w	r1, r1, r9
 800047e:	fbb1 f9fe 	udiv	r9, r1, lr
 8000482:	fb09 f804 	mul.w	r8, r9, r4
 8000486:	fb0e 1119 	mls	r1, lr, r9, r1
 800048a:	b292      	uxth	r2, r2
 800048c:	ea42 4201 	orr.w	r2, r2, r1, lsl #16
 8000490:	4542      	cmp	r2, r8
 8000492:	d229      	bcs.n	80004e8 <__udivmoddi4+0x2e4>
 8000494:	18ba      	adds	r2, r7, r2
 8000496:	f109 31ff 	add.w	r1, r9, #4294967295
 800049a:	d2c4      	bcs.n	8000426 <__udivmoddi4+0x222>
 800049c:	4542      	cmp	r2, r8
 800049e:	d2c2      	bcs.n	8000426 <__udivmoddi4+0x222>
 80004a0:	f1a9 0102 	sub.w	r1, r9, #2
 80004a4:	443a      	add	r2, r7
 80004a6:	e7be      	b.n	8000426 <__udivmoddi4+0x222>
 80004a8:	45f0      	cmp	r8, lr
 80004aa:	d29d      	bcs.n	80003e8 <__udivmoddi4+0x1e4>
 80004ac:	ebbe 0302 	subs.w	r3, lr, r2
 80004b0:	eb6c 0c07 	sbc.w	ip, ip, r7
 80004b4:	3801      	subs	r0, #1
 80004b6:	46e1      	mov	r9, ip
 80004b8:	e796      	b.n	80003e8 <__udivmoddi4+0x1e4>
 80004ba:	eba7 0909 	sub.w	r9, r7, r9
 80004be:	4449      	add	r1, r9
 80004c0:	f1a8 0c02 	sub.w	ip, r8, #2
 80004c4:	fbb1 f9fe 	udiv	r9, r1, lr
 80004c8:	fb09 f804 	mul.w	r8, r9, r4
 80004cc:	e7db      	b.n	8000486 <__udivmoddi4+0x282>
 80004ce:	4673      	mov	r3, lr
 80004d0:	e77f      	b.n	80003d2 <__udivmoddi4+0x1ce>
 80004d2:	4650      	mov	r0, sl
 80004d4:	e766      	b.n	80003a4 <__udivmoddi4+0x1a0>
 80004d6:	4608      	mov	r0, r1
 80004d8:	e6fd      	b.n	80002d6 <__udivmoddi4+0xd2>
 80004da:	443b      	add	r3, r7
 80004dc:	3a02      	subs	r2, #2
 80004de:	e733      	b.n	8000348 <__udivmoddi4+0x144>
 80004e0:	f1ac 0c02 	sub.w	ip, ip, #2
 80004e4:	443b      	add	r3, r7
 80004e6:	e71c      	b.n	8000322 <__udivmoddi4+0x11e>
 80004e8:	4649      	mov	r1, r9
 80004ea:	e79c      	b.n	8000426 <__udivmoddi4+0x222>
 80004ec:	eba1 0109 	sub.w	r1, r1, r9
 80004f0:	46c4      	mov	ip, r8
 80004f2:	fbb1 f9fe 	udiv	r9, r1, lr
 80004f6:	fb09 f804 	mul.w	r8, r9, r4
 80004fa:	e7c4      	b.n	8000486 <__udivmoddi4+0x282>

080004fc <__aeabi_idiv0>:
 80004fc:	4770      	bx	lr
 80004fe:	bf00      	nop

08000500 <main>:
/**
  * @brief  The application entry point.
  * @retval int
  */
int main(void)
{
 8000500:	b580      	push	{r7, lr}
 8000502:	af00      	add	r7, sp, #0
  /* USER CODE END 1 */

  /* MCU Configuration--------------------------------------------------------*/

  /* Reset of all peripherals, Initializes the Flash interface and the Systick. */
  HAL_Init();
 8000504:	f000 fa4e 	bl	80009a4 <HAL_Init>
  /* USER CODE BEGIN Init */

  /* USER CODE END Init */

  /* Configure the system clock */
  SystemClock_Config();
 8000508:	f000 f808 	bl	800051c <SystemClock_Config>
  /* USER CODE BEGIN SysInit */

  /* USER CODE END SysInit */

  /* Initialize all configured peripherals */
  MX_GPIO_Init();
 800050c:	f000 f8c6 	bl	800069c <MX_GPIO_Init>
  MX_USART2_UART_Init();
 8000510:	f000 f89a 	bl	8000648 <MX_USART2_UART_Init>
  MX_USART1_UART_Init();
 8000514:	f000 f86e 	bl	80005f4 <MX_USART1_UART_Init>

  /* USER CODE END 2 */

  /* Infinite loop */
  /* USER CODE BEGIN WHILE */
  while (1)
 8000518:	bf00      	nop
 800051a:	e7fd      	b.n	8000518 <main+0x18>

0800051c <SystemClock_Config>:
/**
  * @brief System Clock Configuration
  * @retval None
  */
void SystemClock_Config(void)
{
 800051c:	b580      	push	{r7, lr}
 800051e:	b094      	sub	sp, #80	@ 0x50
 8000520:	af00      	add	r7, sp, #0
  RCC_OscInitTypeDef RCC_OscInitStruct = {0};
 8000522:	f107 0320 	add.w	r3, r7, #32
 8000526:	2230      	movs	r2, #48	@ 0x30
 8000528:	2100      	movs	r1, #0
 800052a:	4618      	mov	r0, r3
 800052c:	f001 fc8c 	bl	8001e48 <memset>
  RCC_ClkInitTypeDef RCC_ClkInitStruct = {0};
 8000530:	f107 030c 	add.w	r3, r7, #12
 8000534:	2200      	movs	r2, #0
 8000536:	601a      	str	r2, [r3, #0]
 8000538:	605a      	str	r2, [r3, #4]
 800053a:	609a      	str	r2, [r3, #8]
 800053c:	60da      	str	r2, [r3, #12]
 800053e:	611a      	str	r2, [r3, #16]

  /** Configure the main internal regulator output voltage
  */
  __HAL_RCC_PWR_CLK_ENABLE();
 8000540:	2300      	movs	r3, #0
 8000542:	60bb      	str	r3, [r7, #8]
 8000544:	4b29      	ldr	r3, [pc, #164]	@ (80005ec <SystemClock_Config+0xd0>)
 8000546:	6c1b      	ldr	r3, [r3, #64]	@ 0x40
 8000548:	4a28      	ldr	r2, [pc, #160]	@ (80005ec <SystemClock_Config+0xd0>)
 800054a:	f043 5380 	orr.w	r3, r3, #268435456	@ 0x10000000
 800054e:	6413      	str	r3, [r2, #64]	@ 0x40
 8000550:	4b26      	ldr	r3, [pc, #152]	@ (80005ec <SystemClock_Config+0xd0>)
 8000552:	6c1b      	ldr	r3, [r3, #64]	@ 0x40
 8000554:	f003 5380 	and.w	r3, r3, #268435456	@ 0x10000000
 8000558:	60bb      	str	r3, [r7, #8]
 800055a:	68bb      	ldr	r3, [r7, #8]
  __HAL_PWR_VOLTAGESCALING_CONFIG(PWR_REGULATOR_VOLTAGE_SCALE2);
 800055c:	2300      	movs	r3, #0
 800055e:	607b      	str	r3, [r7, #4]
 8000560:	4b23      	ldr	r3, [pc, #140]	@ (80005f0 <SystemClock_Config+0xd4>)
 8000562:	681b      	ldr	r3, [r3, #0]
 8000564:	f423 4340 	bic.w	r3, r3, #49152	@ 0xc000
 8000568:	4a21      	ldr	r2, [pc, #132]	@ (80005f0 <SystemClock_Config+0xd4>)
 800056a:	f443 4300 	orr.w	r3, r3, #32768	@ 0x8000
 800056e:	6013      	str	r3, [r2, #0]
 8000570:	4b1f      	ldr	r3, [pc, #124]	@ (80005f0 <SystemClock_Config+0xd4>)
 8000572:	681b      	ldr	r3, [r3, #0]
 8000574:	f403 4340 	and.w	r3, r3, #49152	@ 0xc000
 8000578:	607b      	str	r3, [r7, #4]
 800057a:	687b      	ldr	r3, [r7, #4]

  /** Initializes the RCC Oscillators according to the specified parameters
  * in the RCC_OscInitTypeDef structure.
  */
  RCC_OscInitStruct.OscillatorType = RCC_OSCILLATORTYPE_HSI;
 800057c:	2302      	movs	r3, #2
 800057e:	623b      	str	r3, [r7, #32]
  RCC_OscInitStruct.HSIState = RCC_HSI_ON;
 8000580:	2301      	movs	r3, #1
 8000582:	62fb      	str	r3, [r7, #44]	@ 0x2c
  RCC_OscInitStruct.HSICalibrationValue = RCC_HSICALIBRATION_DEFAULT;
 8000584:	2310      	movs	r3, #16
 8000586:	633b      	str	r3, [r7, #48]	@ 0x30
  RCC_OscInitStruct.PLL.PLLState = RCC_PLL_ON;
 8000588:	2302      	movs	r3, #2
 800058a:	63bb      	str	r3, [r7, #56]	@ 0x38
  RCC_OscInitStruct.PLL.PLLSource = RCC_PLLSOURCE_HSI;
 800058c:	2300      	movs	r3, #0
 800058e:	63fb      	str	r3, [r7, #60]	@ 0x3c
  RCC_OscInitStruct.PLL.PLLM = 16;
 8000590:	2310      	movs	r3, #16
 8000592:	643b      	str	r3, [r7, #64]	@ 0x40
  RCC_OscInitStruct.PLL.PLLN = 336;
 8000594:	f44f 73a8 	mov.w	r3, #336	@ 0x150
 8000598:	647b      	str	r3, [r7, #68]	@ 0x44
  RCC_OscInitStruct.PLL.PLLP = RCC_PLLP_DIV4;
 800059a:	2304      	movs	r3, #4
 800059c:	64bb      	str	r3, [r7, #72]	@ 0x48
  RCC_OscInitStruct.PLL.PLLQ = 7;
 800059e:	2307      	movs	r3, #7
 80005a0:	64fb      	str	r3, [r7, #76]	@ 0x4c
  if (HAL_RCC_OscConfig(&RCC_OscInitStruct) != HAL_OK)
 80005a2:	f107 0320 	add.w	r3, r7, #32
 80005a6:	4618      	mov	r0, r3
 80005a8:	f000 fcf2 	bl	8000f90 <HAL_RCC_OscConfig>
 80005ac:	4603      	mov	r3, r0
 80005ae:	2b00      	cmp	r3, #0
 80005b0:	d001      	beq.n	80005b6 <SystemClock_Config+0x9a>
  {
    Error_Handler();
 80005b2:	f000 f8e1 	bl	8000778 <Error_Handler>
  }

  /** Initializes the CPU, AHB and APB buses clocks
  */
  RCC_ClkInitStruct.ClockType = RCC_CLOCKTYPE_HCLK|RCC_CLOCKTYPE_SYSCLK
 80005b6:	230f      	movs	r3, #15
 80005b8:	60fb      	str	r3, [r7, #12]
                              |RCC_CLOCKTYPE_PCLK1|RCC_CLOCKTYPE_PCLK2;
  RCC_ClkInitStruct.SYSCLKSource = RCC_SYSCLKSOURCE_PLLCLK;
 80005ba:	2302      	movs	r3, #2
 80005bc:	613b      	str	r3, [r7, #16]
  RCC_ClkInitStruct.AHBCLKDivider = RCC_SYSCLK_DIV1;
 80005be:	2300      	movs	r3, #0
 80005c0:	617b      	str	r3, [r7, #20]
  RCC_ClkInitStruct.APB1CLKDivider = RCC_HCLK_DIV2;
 80005c2:	f44f 5380 	mov.w	r3, #4096	@ 0x1000
 80005c6:	61bb      	str	r3, [r7, #24]
  RCC_ClkInitStruct.APB2CLKDivider = RCC_HCLK_DIV1;
 80005c8:	2300      	movs	r3, #0
 80005ca:	61fb      	str	r3, [r7, #28]

  if (HAL_RCC_ClockConfig(&RCC_ClkInitStruct, FLASH_LATENCY_2) != HAL_OK)
 80005cc:	f107 030c 	add.w	r3, r7, #12
 80005d0:	2102      	movs	r1, #2
 80005d2:	4618      	mov	r0, r3
 80005d4:	f000 ff54 	bl	8001480 <HAL_RCC_ClockConfig>
 80005d8:	4603      	mov	r3, r0
 80005da:	2b00      	cmp	r3, #0
 80005dc:	d001      	beq.n	80005e2 <SystemClock_Config+0xc6>
  {
    Error_Handler();
 80005de:	f000 f8cb 	bl	8000778 <Error_Handler>
  }
}
 80005e2:	bf00      	nop
 80005e4:	3750      	adds	r7, #80	@ 0x50
 80005e6:	46bd      	mov	sp, r7
 80005e8:	bd80      	pop	{r7, pc}
 80005ea:	bf00      	nop
 80005ec:	40023800 	.word	0x40023800
 80005f0:	40007000 	.word	0x40007000

080005f4 <MX_USART1_UART_Init>:
  * @brief USART1 Initialization Function
  * @param None
  * @retval None
  */
static void MX_USART1_UART_Init(void)
{
 80005f4:	b580      	push	{r7, lr}
 80005f6:	af00      	add	r7, sp, #0
  /* USER CODE END USART1_Init 0 */

  /* USER CODE BEGIN USART1_Init 1 */

  /* USER CODE END USART1_Init 1 */
  huart1.Instance = USART1;
 80005f8:	4b11      	ldr	r3, [pc, #68]	@ (8000640 <MX_USART1_UART_Init+0x4c>)
 80005fa:	4a12      	ldr	r2, [pc, #72]	@ (8000644 <MX_USART1_UART_Init+0x50>)
 80005fc:	601a      	str	r2, [r3, #0]
  huart1.Init.BaudRate = 115200;
 80005fe:	4b10      	ldr	r3, [pc, #64]	@ (8000640 <MX_USART1_UART_Init+0x4c>)
 8000600:	f44f 32e1 	mov.w	r2, #115200	@ 0x1c200
 8000604:	605a      	str	r2, [r3, #4]
  huart1.Init.WordLength = UART_WORDLENGTH_8B;
 8000606:	4b0e      	ldr	r3, [pc, #56]	@ (8000640 <MX_USART1_UART_Init+0x4c>)
 8000608:	2200      	movs	r2, #0
 800060a:	609a      	str	r2, [r3, #8]
  huart1.Init.StopBits = UART_STOPBITS_1;
 800060c:	4b0c      	ldr	r3, [pc, #48]	@ (8000640 <MX_USART1_UART_Init+0x4c>)
 800060e:	2200      	movs	r2, #0
 8000610:	60da      	str	r2, [r3, #12]
  huart1.Init.Parity = UART_PARITY_NONE;
 8000612:	4b0b      	ldr	r3, [pc, #44]	@ (8000640 <MX_USART1_UART_Init+0x4c>)
 8000614:	2200      	movs	r2, #0
 8000616:	611a      	str	r2, [r3, #16]
  huart1.Init.Mode = UART_MODE_TX_RX;
 8000618:	4b09      	ldr	r3, [pc, #36]	@ (8000640 <MX_USART1_UART_Init+0x4c>)
 800061a:	220c      	movs	r2, #12
 800061c:	615a      	str	r2, [r3, #20]
  huart1.Init.HwFlowCtl = UART_HWCONTROL_NONE;
 800061e:	4b08      	ldr	r3, [pc, #32]	@ (8000640 <MX_USART1_UART_Init+0x4c>)
 8000620:	2200      	movs	r2, #0
 8000622:	619a      	str	r2, [r3, #24]
  huart1.Init.OverSampling = UART_OVERSAMPLING_16;
 8000624:	4b06      	ldr	r3, [pc, #24]	@ (8000640 <MX_USART1_UART_Init+0x4c>)
 8000626:	2200      	movs	r2, #0
 8000628:	61da      	str	r2, [r3, #28]
  if (HAL_UART_Init(&huart1) != HAL_OK)
 800062a:	4805      	ldr	r0, [pc, #20]	@ (8000640 <MX_USART1_UART_Init+0x4c>)
 800062c:	f001 f948 	bl	80018c0 <HAL_UART_Init>
 8000630:	4603      	mov	r3, r0
 8000632:	2b00      	cmp	r3, #0
 8000634:	d001      	beq.n	800063a <MX_USART1_UART_Init+0x46>
  {
    Error_Handler();
 8000636:	f000 f89f 	bl	8000778 <Error_Handler>
  }
  /* USER CODE BEGIN USART1_Init 2 */

  /* USER CODE END USART1_Init 2 */

}
 800063a:	bf00      	nop
 800063c:	bd80      	pop	{r7, pc}
 800063e:	bf00      	nop
 8000640:	20000028 	.word	0x20000028
 8000644:	40011000 	.word	0x40011000

08000648 <MX_USART2_UART_Init>:
  * @brief USART2 Initialization Function
  * @param None
  * @retval None
  */
static void MX_USART2_UART_Init(void)
{
 8000648:	b580      	push	{r7, lr}
 800064a:	af00      	add	r7, sp, #0
  /* USER CODE END USART2_Init 0 */

  /* USER CODE BEGIN USART2_Init 1 */

  /* USER CODE END USART2_Init 1 */
  huart2.Instance = USART2;
 800064c:	4b11      	ldr	r3, [pc, #68]	@ (8000694 <MX_USART2_UART_Init+0x4c>)
 800064e:	4a12      	ldr	r2, [pc, #72]	@ (8000698 <MX_USART2_UART_Init+0x50>)
 8000650:	601a      	str	r2, [r3, #0]
  huart2.Init.BaudRate = 115200;
 8000652:	4b10      	ldr	r3, [pc, #64]	@ (8000694 <MX_USART2_UART_Init+0x4c>)
 8000654:	f44f 32e1 	mov.w	r2, #115200	@ 0x1c200
 8000658:	605a      	str	r2, [r3, #4]
  huart2.Init.WordLength = UART_WORDLENGTH_8B;
 800065a:	4b0e      	ldr	r3, [pc, #56]	@ (8000694 <MX_USART2_UART_Init+0x4c>)
 800065c:	2200      	movs	r2, #0
 800065e:	609a      	str	r2, [r3, #8]
  huart2.Init.StopBits = UART_STOPBITS_1;
 8000660:	4b0c      	ldr	r3, [pc, #48]	@ (8000694 <MX_USART2_UART_Init+0x4c>)
 8000662:	2200      	movs	r2, #0
 8000664:	60da      	str	r2, [r3, #12]
  huart2.Init.Parity = UART_PARITY_NONE;
 8000666:	4b0b      	ldr	r3, [pc, #44]	@ (8000694 <MX_USART2_UART_Init+0x4c>)
 8000668:	2200      	movs	r2, #0
 800066a:	611a      	str	r2, [r3, #16]
  huart2.Init.Mode = UART_MODE_TX_RX;
 800066c:	4b09      	ldr	r3, [pc, #36]	@ (8000694 <MX_USART2_UART_Init+0x4c>)
 800066e:	220c      	movs	r2, #12
 8000670:	615a      	str	r2, [r3, #20]
  huart2.Init.HwFlowCtl = UART_HWCONTROL_NONE;
 8000672:	4b08      	ldr	r3, [pc, #32]	@ (8000694 <MX_USART2_UART_Init+0x4c>)
 8000674:	2200      	movs	r2, #0
 8000676:	619a      	str	r2, [r3, #24]
  huart2.Init.OverSampling = UART_OVERSAMPLING_16;
 8000678:	4b06      	ldr	r3, [pc, #24]	@ (8000694 <MX_USART2_UART_Init+0x4c>)
 800067a:	2200      	movs	r2, #0
 800067c:	61da      	str	r2, [r3, #28]
  if (HAL_UART_Init(&huart2) != HAL_OK)
 800067e:	4805      	ldr	r0, [pc, #20]	@ (8000694 <MX_USART2_UART_Init+0x4c>)
 8000680:	f001 f91e 	bl	80018c0 <HAL_UART_Init>
 8000684:	4603      	mov	r3, r0
 8000686:	2b00      	cmp	r3, #0
 8000688:	d001      	beq.n	800068e <MX_USART2_UART_Init+0x46>
  {
    Error_Handler();
 800068a:	f000 f875 	bl	8000778 <Error_Handler>
  }
  /* USER CODE BEGIN USART2_Init 2 */

  /* USER CODE END USART2_Init 2 */

}
 800068e:	bf00      	nop
 8000690:	bd80      	pop	{r7, pc}
 8000692:	bf00      	nop
 8000694:	20000070 	.word	0x20000070
 8000698:	40004400 	.word	0x40004400

0800069c <MX_GPIO_Init>:
  * @brief GPIO Initialization Function
  * @param None
  * @retval None
  */
static void MX_GPIO_Init(void)
{
 800069c:	b580      	push	{r7, lr}
 800069e:	b08a      	sub	sp, #40	@ 0x28
 80006a0:	af00      	add	r7, sp, #0
  GPIO_InitTypeDef GPIO_InitStruct = {0};
 80006a2:	f107 0314 	add.w	r3, r7, #20
 80006a6:	2200      	movs	r2, #0
 80006a8:	601a      	str	r2, [r3, #0]
 80006aa:	605a      	str	r2, [r3, #4]
 80006ac:	609a      	str	r2, [r3, #8]
 80006ae:	60da      	str	r2, [r3, #12]
 80006b0:	611a      	str	r2, [r3, #16]
  /* USER CODE BEGIN MX_GPIO_Init_1 */

  /* USER CODE END MX_GPIO_Init_1 */

  /* GPIO Ports Clock Enable */
  __HAL_RCC_GPIOC_CLK_ENABLE();
 80006b2:	2300      	movs	r3, #0
 80006b4:	613b      	str	r3, [r7, #16]
 80006b6:	4b2d      	ldr	r3, [pc, #180]	@ (800076c <MX_GPIO_Init+0xd0>)
 80006b8:	6b1b      	ldr	r3, [r3, #48]	@ 0x30
 80006ba:	4a2c      	ldr	r2, [pc, #176]	@ (800076c <MX_GPIO_Init+0xd0>)
 80006bc:	f043 0304 	orr.w	r3, r3, #4
 80006c0:	6313      	str	r3, [r2, #48]	@ 0x30
 80006c2:	4b2a      	ldr	r3, [pc, #168]	@ (800076c <MX_GPIO_Init+0xd0>)
 80006c4:	6b1b      	ldr	r3, [r3, #48]	@ 0x30
 80006c6:	f003 0304 	and.w	r3, r3, #4
 80006ca:	613b      	str	r3, [r7, #16]
 80006cc:	693b      	ldr	r3, [r7, #16]
  __HAL_RCC_GPIOH_CLK_ENABLE();
 80006ce:	2300      	movs	r3, #0
 80006d0:	60fb      	str	r3, [r7, #12]
 80006d2:	4b26      	ldr	r3, [pc, #152]	@ (800076c <MX_GPIO_Init+0xd0>)
 80006d4:	6b1b      	ldr	r3, [r3, #48]	@ 0x30
 80006d6:	4a25      	ldr	r2, [pc, #148]	@ (800076c <MX_GPIO_Init+0xd0>)
 80006d8:	f043 0380 	orr.w	r3, r3, #128	@ 0x80
 80006dc:	6313      	str	r3, [r2, #48]	@ 0x30
 80006de:	4b23      	ldr	r3, [pc, #140]	@ (800076c <MX_GPIO_Init+0xd0>)
 80006e0:	6b1b      	ldr	r3, [r3, #48]	@ 0x30
 80006e2:	f003 0380 	and.w	r3, r3, #128	@ 0x80
 80006e6:	60fb      	str	r3, [r7, #12]
 80006e8:	68fb      	ldr	r3, [r7, #12]
  __HAL_RCC_GPIOA_CLK_ENABLE();
 80006ea:	2300      	movs	r3, #0
 80006ec:	60bb      	str	r3, [r7, #8]
 80006ee:	4b1f      	ldr	r3, [pc, #124]	@ (800076c <MX_GPIO_Init+0xd0>)
 80006f0:	6b1b      	ldr	r3, [r3, #48]	@ 0x30
 80006f2:	4a1e      	ldr	r2, [pc, #120]	@ (800076c <MX_GPIO_Init+0xd0>)
 80006f4:	f043 0301 	orr.w	r3, r3, #1
 80006f8:	6313      	str	r3, [r2, #48]	@ 0x30
 80006fa:	4b1c      	ldr	r3, [pc, #112]	@ (800076c <MX_GPIO_Init+0xd0>)
 80006fc:	6b1b      	ldr	r3, [r3, #48]	@ 0x30
 80006fe:	f003 0301 	and.w	r3, r3, #1
 8000702:	60bb      	str	r3, [r7, #8]
 8000704:	68bb      	ldr	r3, [r7, #8]
  __HAL_RCC_GPIOB_CLK_ENABLE();
 8000706:	2300      	movs	r3, #0
 8000708:	607b      	str	r3, [r7, #4]
 800070a:	4b18      	ldr	r3, [pc, #96]	@ (800076c <MX_GPIO_Init+0xd0>)
 800070c:	6b1b      	ldr	r3, [r3, #48]	@ 0x30
 800070e:	4a17      	ldr	r2, [pc, #92]	@ (800076c <MX_GPIO_Init+0xd0>)
 8000710:	f043 0302 	orr.w	r3, r3, #2
 8000714:	6313      	str	r3, [r2, #48]	@ 0x30
 8000716:	4b15      	ldr	r3, [pc, #84]	@ (800076c <MX_GPIO_Init+0xd0>)
 8000718:	6b1b      	ldr	r3, [r3, #48]	@ 0x30
 800071a:	f003 0302 	and.w	r3, r3, #2
 800071e:	607b      	str	r3, [r7, #4]
 8000720:	687b      	ldr	r3, [r7, #4]

  /*Configure GPIO pin Output Level */
  HAL_GPIO_WritePin(LD2_GPIO_Port, LD2_Pin, GPIO_PIN_RESET);
 8000722:	2200      	movs	r2, #0
 8000724:	2120      	movs	r1, #32
 8000726:	4812      	ldr	r0, [pc, #72]	@ (8000770 <MX_GPIO_Init+0xd4>)
 8000728:	f000 fc18 	bl	8000f5c <HAL_GPIO_WritePin>

  /*Configure GPIO pin : B1_Pin */
  GPIO_InitStruct.Pin = B1_Pin;
 800072c:	f44f 5300 	mov.w	r3, #8192	@ 0x2000
 8000730:	617b      	str	r3, [r7, #20]
  GPIO_InitStruct.Mode = GPIO_MODE_IT_FALLING;
 8000732:	f44f 1304 	mov.w	r3, #2162688	@ 0x210000
 8000736:	61bb      	str	r3, [r7, #24]
  GPIO_InitStruct.Pull = GPIO_NOPULL;
 8000738:	2300      	movs	r3, #0
 800073a:	61fb      	str	r3, [r7, #28]
  HAL_GPIO_Init(B1_GPIO_Port, &GPIO_InitStruct);
 800073c:	f107 0314 	add.w	r3, r7, #20
 8000740:	4619      	mov	r1, r3
 8000742:	480c      	ldr	r0, [pc, #48]	@ (8000774 <MX_GPIO_Init+0xd8>)
 8000744:	f000 fa86 	bl	8000c54 <HAL_GPIO_Init>

  /*Configure GPIO pin : LD2_Pin */
  GPIO_InitStruct.Pin = LD2_Pin;
 8000748:	2320      	movs	r3, #32
 800074a:	617b      	str	r3, [r7, #20]
  GPIO_InitStruct.Mode = GPIO_MODE_OUTPUT_PP;
 800074c:	2301      	movs	r3, #1
 800074e:	61bb      	str	r3, [r7, #24]
  GPIO_InitStruct.Pull = GPIO_NOPULL;
 8000750:	2300      	movs	r3, #0
 8000752:	61fb      	str	r3, [r7, #28]
  GPIO_InitStruct.Speed = GPIO_SPEED_FREQ_LOW;
 8000754:	2300      	movs	r3, #0
 8000756:	623b      	str	r3, [r7, #32]
  HAL_GPIO_Init(LD2_GPIO_Port, &GPIO_InitStruct);
 8000758:	f107 0314 	add.w	r3, r7, #20
 800075c:	4619      	mov	r1, r3
 800075e:	4804      	ldr	r0, [pc, #16]	@ (8000770 <MX_GPIO_Init+0xd4>)
 8000760:	f000 fa78 	bl	8000c54 <HAL_GPIO_Init>

  /* USER CODE BEGIN MX_GPIO_Init_2 */

  /* USER CODE END MX_GPIO_Init_2 */
}
 8000764:	bf00      	nop
 8000766:	3728      	adds	r7, #40	@ 0x28
 8000768:	46bd      	mov	sp, r7
 800076a:	bd80      	pop	{r7, pc}
 800076c:	40023800 	.word	0x40023800
 8000770:	40020000 	.word	0x40020000
 8000774:	40020800 	.word	0x40020800

08000778 <Error_Handler>:
/**
  * @brief  This function is executed in case of error occurrence.
  * @retval None
  */
void Error_Handler(void)
{
 8000778:	b480      	push	{r7}
 800077a:	af00      	add	r7, sp, #0
  \details Disables IRQ interrupts by setting special-purpose register PRIMASK.
           Can only be executed in Privileged modes.
 */
__STATIC_FORCEINLINE void __disable_irq(void)
{
  __ASM volatile ("cpsid i" : : : "memory");
 800077c:	b672      	cpsid	i
}
 800077e:	bf00      	nop
  /* USER CODE BEGIN Error_Handler_Debug */
  /* User can add his own implementation to report the HAL error return state */
  __disable_irq();
  while (1)
 8000780:	bf00      	nop
 8000782:	e7fd      	b.n	8000780 <Error_Handler+0x8>

08000784 <HAL_MspInit>:
/* USER CODE END 0 */
/**
  * Initializes the Global MSP.
  */
void HAL_MspInit(void)
{
 8000784:	b480      	push	{r7}
 8000786:	b083      	sub	sp, #12
 8000788:	af00      	add	r7, sp, #0

  /* USER CODE BEGIN MspInit 0 */

  /* USER CODE END MspInit 0 */

  __HAL_RCC_SYSCFG_CLK_ENABLE();
 800078a:	2300      	movs	r3, #0
 800078c:	607b      	str	r3, [r7, #4]
 800078e:	4b10      	ldr	r3, [pc, #64]	@ (80007d0 <HAL_MspInit+0x4c>)
 8000790:	6c5b      	ldr	r3, [r3, #68]	@ 0x44
 8000792:	4a0f      	ldr	r2, [pc, #60]	@ (80007d0 <HAL_MspInit+0x4c>)
 8000794:	f443 4380 	orr.w	r3, r3, #16384	@ 0x4000
 8000798:	6453      	str	r3, [r2, #68]	@ 0x44
 800079a:	4b0d      	ldr	r3, [pc, #52]	@ (80007d0 <HAL_MspInit+0x4c>)
 800079c:	6c5b      	ldr	r3, [r3, #68]	@ 0x44
 800079e:	f403 4380 	and.w	r3, r3, #16384	@ 0x4000
 80007a2:	607b      	str	r3, [r7, #4]
 80007a4:	687b      	ldr	r3, [r7, #4]
  __HAL_RCC_PWR_CLK_ENABLE();
 80007a6:	2300      	movs	r3, #0
 80007a8:	603b      	str	r3, [r7, #0]
 80007aa:	4b09      	ldr	r3, [pc, #36]	@ (80007d0 <HAL_MspInit+0x4c>)
 80007ac:	6c1b      	ldr	r3, [r3, #64]	@ 0x40
 80007ae:	4a08      	ldr	r2, [pc, #32]	@ (80007d0 <HAL_MspInit+0x4c>)
 80007b0:	f043 5380 	orr.w	r3, r3, #268435456	@ 0x10000000
 80007b4:	6413      	str	r3, [r2, #64]	@ 0x40
 80007b6:	4b06      	ldr	r3, [pc, #24]	@ (80007d0 <HAL_MspInit+0x4c>)
 80007b8:	6c1b      	ldr	r3, [r3, #64]	@ 0x40
 80007ba:	f003 5380 	and.w	r3, r3, #268435456	@ 0x10000000
 80007be:	603b      	str	r3, [r7, #0]
 80007c0:	683b      	ldr	r3, [r7, #0]
  /* System interrupt init*/

  /* USER CODE BEGIN MspInit 1 */

  /* USER CODE END MspInit 1 */
}
 80007c2:	bf00      	nop
 80007c4:	370c      	adds	r7, #12
 80007c6:	46bd      	mov	sp, r7
 80007c8:	f85d 7b04 	ldr.w	r7, [sp], #4
 80007cc:	4770      	bx	lr
 80007ce:	bf00      	nop
 80007d0:	40023800 	.word	0x40023800

080007d4 <HAL_UART_MspInit>:
  * This function configures the hardware resources used in this example
  * @param huart: UART handle pointer
  * @retval None
  */
void HAL_UART_MspInit(UART_HandleTypeDef* huart)
{
 80007d4:	b580      	push	{r7, lr}
 80007d6:	b08c      	sub	sp, #48	@ 0x30
 80007d8:	af00      	add	r7, sp, #0
 80007da:	6078      	str	r0, [r7, #4]
  GPIO_InitTypeDef GPIO_InitStruct = {0};
 80007dc:	f107 031c 	add.w	r3, r7, #28
 80007e0:	2200      	movs	r2, #0
 80007e2:	601a      	str	r2, [r3, #0]
 80007e4:	605a      	str	r2, [r3, #4]
 80007e6:	609a      	str	r2, [r3, #8]
 80007e8:	60da      	str	r2, [r3, #12]
 80007ea:	611a      	str	r2, [r3, #16]
  if(huart->Instance==USART1)
 80007ec:	687b      	ldr	r3, [r7, #4]
 80007ee:	681b      	ldr	r3, [r3, #0]
 80007f0:	4a32      	ldr	r2, [pc, #200]	@ (80008bc <HAL_UART_MspInit+0xe8>)
 80007f2:	4293      	cmp	r3, r2
 80007f4:	d12d      	bne.n	8000852 <HAL_UART_MspInit+0x7e>
  {
    /* USER CODE BEGIN USART1_MspInit 0 */

    /* USER CODE END USART1_MspInit 0 */
    /* Peripheral clock enable */
    __HAL_RCC_USART1_CLK_ENABLE();
 80007f6:	2300      	movs	r3, #0
 80007f8:	61bb      	str	r3, [r7, #24]
 80007fa:	4b31      	ldr	r3, [pc, #196]	@ (80008c0 <HAL_UART_MspInit+0xec>)
 80007fc:	6c5b      	ldr	r3, [r3, #68]	@ 0x44
 80007fe:	4a30      	ldr	r2, [pc, #192]	@ (80008c0 <HAL_UART_MspInit+0xec>)
 8000800:	f043 0310 	orr.w	r3, r3, #16
 8000804:	6453      	str	r3, [r2, #68]	@ 0x44
 8000806:	4b2e      	ldr	r3, [pc, #184]	@ (80008c0 <HAL_UART_MspInit+0xec>)
 8000808:	6c5b      	ldr	r3, [r3, #68]	@ 0x44
 800080a:	f003 0310 	and.w	r3, r3, #16
 800080e:	61bb      	str	r3, [r7, #24]
 8000810:	69bb      	ldr	r3, [r7, #24]

    __HAL_RCC_GPIOA_CLK_ENABLE();
 8000812:	2300      	movs	r3, #0
 8000814:	617b      	str	r3, [r7, #20]
 8000816:	4b2a      	ldr	r3, [pc, #168]	@ (80008c0 <HAL_UART_MspInit+0xec>)
 8000818:	6b1b      	ldr	r3, [r3, #48]	@ 0x30
 800081a:	4a29      	ldr	r2, [pc, #164]	@ (80008c0 <HAL_UART_MspInit+0xec>)
 800081c:	f043 0301 	orr.w	r3, r3, #1
 8000820:	6313      	str	r3, [r2, #48]	@ 0x30
 8000822:	4b27      	ldr	r3, [pc, #156]	@ (80008c0 <HAL_UART_MspInit+0xec>)
 8000824:	6b1b      	ldr	r3, [r3, #48]	@ 0x30
 8000826:	f003 0301 	and.w	r3, r3, #1
 800082a:	617b      	str	r3, [r7, #20]
 800082c:	697b      	ldr	r3, [r7, #20]
    /**USART1 GPIO Configuration
    PA9     ------> USART1_TX
    PA10     ------> USART1_RX
    */
    GPIO_InitStruct.Pin = GPIO_PIN_9|GPIO_PIN_10;
 800082e:	f44f 63c0 	mov.w	r3, #1536	@ 0x600
 8000832:	61fb      	str	r3, [r7, #28]
    GPIO_InitStruct.Mode = GPIO_MODE_AF_PP;
 8000834:	2302      	movs	r3, #2
 8000836:	623b      	str	r3, [r7, #32]
    GPIO_InitStruct.Pull = GPIO_NOPULL;
 8000838:	2300      	movs	r3, #0
 800083a:	627b      	str	r3, [r7, #36]	@ 0x24
    GPIO_InitStruct.Speed = GPIO_SPEED_FREQ_VERY_HIGH;
 800083c:	2303      	movs	r3, #3
 800083e:	62bb      	str	r3, [r7, #40]	@ 0x28
    GPIO_InitStruct.Alternate = GPIO_AF7_USART1;
 8000840:	2307      	movs	r3, #7
 8000842:	62fb      	str	r3, [r7, #44]	@ 0x2c
    HAL_GPIO_Init(GPIOA, &GPIO_InitStruct);
 8000844:	f107 031c 	add.w	r3, r7, #28
 8000848:	4619      	mov	r1, r3
 800084a:	481e      	ldr	r0, [pc, #120]	@ (80008c4 <HAL_UART_MspInit+0xf0>)
 800084c:	f000 fa02 	bl	8000c54 <HAL_GPIO_Init>
    /* USER CODE BEGIN USART2_MspInit 1 */

    /* USER CODE END USART2_MspInit 1 */
  }

}
 8000850:	e030      	b.n	80008b4 <HAL_UART_MspInit+0xe0>
  else if(huart->Instance==USART2)
 8000852:	687b      	ldr	r3, [r7, #4]
 8000854:	681b      	ldr	r3, [r3, #0]
 8000856:	4a1c      	ldr	r2, [pc, #112]	@ (80008c8 <HAL_UART_MspInit+0xf4>)
 8000858:	4293      	cmp	r3, r2
 800085a:	d12b      	bne.n	80008b4 <HAL_UART_MspInit+0xe0>
    __HAL_RCC_USART2_CLK_ENABLE();
 800085c:	2300      	movs	r3, #0
 800085e:	613b      	str	r3, [r7, #16]
 8000860:	4b17      	ldr	r3, [pc, #92]	@ (80008c0 <HAL_UART_MspInit+0xec>)
 8000862:	6c1b      	ldr	r3, [r3, #64]	@ 0x40
 8000864:	4a16      	ldr	r2, [pc, #88]	@ (80008c0 <HAL_UART_MspInit+0xec>)
 8000866:	f443 3300 	orr.w	r3, r3, #131072	@ 0x20000
 800086a:	6413      	str	r3, [r2, #64]	@ 0x40
 800086c:	4b14      	ldr	r3, [pc, #80]	@ (80008c0 <HAL_UART_MspInit+0xec>)
 800086e:	6c1b      	ldr	r3, [r3, #64]	@ 0x40
 8000870:	f403 3300 	and.w	r3, r3, #131072	@ 0x20000
 8000874:	613b      	str	r3, [r7, #16]
 8000876:	693b      	ldr	r3, [r7, #16]
    __HAL_RCC_GPIOA_CLK_ENABLE();
 8000878:	2300      	movs	r3, #0
 800087a:	60fb      	str	r3, [r7, #12]
 800087c:	4b10      	ldr	r3, [pc, #64]	@ (80008c0 <HAL_UART_MspInit+0xec>)
 800087e:	6b1b      	ldr	r3, [r3, #48]	@ 0x30
 8000880:	4a0f      	ldr	r2, [pc, #60]	@ (80008c0 <HAL_UART_MspInit+0xec>)
 8000882:	f043 0301 	orr.w	r3, r3, #1
 8000886:	6313      	str	r3, [r2, #48]	@ 0x30
 8000888:	4b0d      	ldr	r3, [pc, #52]	@ (80008c0 <HAL_UART_MspInit+0xec>)
 800088a:	6b1b      	ldr	r3, [r3, #48]	@ 0x30
 800088c:	f003 0301 	and.w	r3, r3, #1
 8000890:	60fb      	str	r3, [r7, #12]
 8000892:	68fb      	ldr	r3, [r7, #12]
    GPIO_InitStruct.Pin = USART_TX_Pin|USART_RX_Pin;
 8000894:	230c      	movs	r3, #12
 8000896:	61fb      	str	r3, [r7, #28]
    GPIO_InitStruct.Mode = GPIO_MODE_AF_PP;
 8000898:	2302      	movs	r3, #2
 800089a:	623b      	str	r3, [r7, #32]
    GPIO_InitStruct.Pull = GPIO_NOPULL;
 800089c:	2300      	movs	r3, #0
 800089e:	627b      	str	r3, [r7, #36]	@ 0x24
    GPIO_InitStruct.Speed = GPIO_SPEED_FREQ_LOW;
 80008a0:	2300      	movs	r3, #0
 80008a2:	62bb      	str	r3, [r7, #40]	@ 0x28
    GPIO_InitStruct.Alternate = GPIO_AF7_USART2;
 80008a4:	2307      	movs	r3, #7
 80008a6:	62fb      	str	r3, [r7, #44]	@ 0x2c
    HAL_GPIO_Init(GPIOA, &GPIO_InitStruct);
 80008a8:	f107 031c 	add.w	r3, r7, #28
 80008ac:	4619      	mov	r1, r3
 80008ae:	4805      	ldr	r0, [pc, #20]	@ (80008c4 <HAL_UART_MspInit+0xf0>)
 80008b0:	f000 f9d0 	bl	8000c54 <HAL_GPIO_Init>
}
 80008b4:	bf00      	nop
 80008b6:	3730      	adds	r7, #48	@ 0x30
 80008b8:	46bd      	mov	sp, r7
 80008ba:	bd80      	pop	{r7, pc}
 80008bc:	40011000 	.word	0x40011000
 80008c0:	40023800 	.word	0x40023800
 80008c4:	40020000 	.word	0x40020000
 80008c8:	40004400 	.word	0x40004400

080008cc <NMI_Handler>:
/******************************************************************************/
/**
  * @brief This function handles Non maskable interrupt.
  */
void NMI_Handler(void)
{
 80008cc:	b480      	push	{r7}
 80008ce:	af00      	add	r7, sp, #0
  /* USER CODE BEGIN NonMaskableInt_IRQn 0 */

  /* USER CODE END NonMaskableInt_IRQn 0 */
  /* USER CODE BEGIN NonMaskableInt_IRQn 1 */
   while (1)
 80008d0:	bf00      	nop
 80008d2:	e7fd      	b.n	80008d0 <NMI_Handler+0x4>

080008d4 <HardFault_Handler>:

/**
  * @brief This function handles Hard fault interrupt.
  */
void HardFault_Handler(void)
{
 80008d4:	b480      	push	{r7}
 80008d6:	af00      	add	r7, sp, #0
  /* USER CODE BEGIN HardFault_IRQn 0 */

  /* USER CODE END HardFault_IRQn 0 */
  while (1)
 80008d8:	bf00      	nop
 80008da:	e7fd      	b.n	80008d8 <HardFault_Handler+0x4>

080008dc <MemManage_Handler>:

/**
  * @brief This function handles Memory management fault.
  */
void MemManage_Handler(void)
{
 80008dc:	b480      	push	{r7}
 80008de:	af00      	add	r7, sp, #0
  /* USER CODE BEGIN MemoryManagement_IRQn 0 */

  /* USER CODE END MemoryManagement_IRQn 0 */
  while (1)
 80008e0:	bf00      	nop
 80008e2:	e7fd      	b.n	80008e0 <MemManage_Handler+0x4>

080008e4 <BusFault_Handler>:

/**
  * @brief This function handles Pre-fetch fault, memory access fault.
  */
void BusFault_Handler(void)
{
 80008e4:	b480      	push	{r7}
 80008e6:	af00      	add	r7, sp, #0
  /* USER CODE BEGIN BusFault_IRQn 0 */

  /* USER CODE END BusFault_IRQn 0 */
  while (1)
 80008e8:	bf00      	nop
 80008ea:	e7fd      	b.n	80008e8 <BusFault_Handler+0x4>

080008ec <UsageFault_Handler>:

/**
  * @brief This function handles Undefined instruction or illegal state.
  */
void UsageFault_Handler(void)
{
 80008ec:	b480      	push	{r7}
 80008ee:	af00      	add	r7, sp, #0
  /* USER CODE BEGIN UsageFault_IRQn 0 */

  /* USER CODE END UsageFault_IRQn 0 */
  while (1)
 80008f0:	bf00      	nop
 80008f2:	e7fd      	b.n	80008f0 <UsageFault_Handler+0x4>

080008f4 <SVC_Handler>:

/**
  * @brief This function handles System service call via SWI instruction.
  */
void SVC_Handler(void)
{
 80008f4:	b480      	push	{r7}
 80008f6:	af00      	add	r7, sp, #0

  /* USER CODE END SVCall_IRQn 0 */
  /* USER CODE BEGIN SVCall_IRQn 1 */

  /* USER CODE END SVCall_IRQn 1 */
}
 80008f8:	bf00      	nop
 80008fa:	46bd      	mov	sp, r7
 80008fc:	f85d 7b04 	ldr.w	r7, [sp], #4
 8000900:	4770      	bx	lr

08000902 <DebugMon_Handler>:

/**
  * @brief This function handles Debug monitor.
  */
void DebugMon_Handler(void)
{
 8000902:	b480      	push	{r7}
 8000904:	af00      	add	r7, sp, #0

  /* USER CODE END DebugMonitor_IRQn 0 */
  /* USER CODE BEGIN DebugMonitor_IRQn 1 */

  /* USER CODE END DebugMonitor_IRQn 1 */
}
 8000906:	bf00      	nop
 8000908:	46bd      	mov	sp, r7
 800090a:	f85d 7b04 	ldr.w	r7, [sp], #4
 800090e:	4770      	bx	lr

08000910 <PendSV_Handler>:

/**
  * @brief This function handles Pendable request for system service.
  */
void PendSV_Handler(void)
{
 8000910:	b480      	push	{r7}
 8000912:	af00      	add	r7, sp, #0

  /* USER CODE END PendSV_IRQn 0 */
  /* USER CODE BEGIN PendSV_IRQn 1 */

  /* USER CODE END PendSV_IRQn 1 */
}
 8000914:	bf00      	nop
 8000916:	46bd      	mov	sp, r7
 8000918:	f85d 7b04 	ldr.w	r7, [sp], #4
 800091c:	4770      	bx	lr

0800091e <SysTick_Handler>:

/**
  * @brief This function handles System tick timer.
  */
void SysTick_Handler(void)
{
 800091e:	b580      	push	{r7, lr}
 8000920:	af00      	add	r7, sp, #0
  /* USER CODE BEGIN SysTick_IRQn 0 */

  /* USER CODE END SysTick_IRQn 0 */
  HAL_IncTick();
 8000922:	f000 f891 	bl	8000a48 <HAL_IncTick>
  /* USER CODE BEGIN SysTick_IRQn 1 */

  /* USER CODE END SysTick_IRQn 1 */
}
 8000926:	bf00      	nop
 8000928:	bd80      	pop	{r7, pc}
	...

0800092c <SystemInit>:
  *         configuration.
  * @param  None
  * @retval None
  */
void SystemInit(void)
{
 800092c:	b480      	push	{r7}
 800092e:	af00      	add	r7, sp, #0
  /* FPU settings ------------------------------------------------------------*/
  #if (__FPU_PRESENT == 1) && (__FPU_USED == 1)
    SCB->CPACR |= ((3UL << 10*2)|(3UL << 11*2));  /* set CP10 and CP11 Full Access */
 8000930:	4b06      	ldr	r3, [pc, #24]	@ (800094c <SystemInit+0x20>)
 8000932:	f8d3 3088 	ldr.w	r3, [r3, #136]	@ 0x88
 8000936:	4a05      	ldr	r2, [pc, #20]	@ (800094c <SystemInit+0x20>)
 8000938:	f443 0370 	orr.w	r3, r3, #15728640	@ 0xf00000
 800093c:	f8c2 3088 	str.w	r3, [r2, #136]	@ 0x88

  /* Configure the Vector Table location -------------------------------------*/
#if defined(USER_VECT_TAB_ADDRESS)
  SCB->VTOR = VECT_TAB_BASE_ADDRESS | VECT_TAB_OFFSET; /* Vector Table Relocation in Internal SRAM */
#endif /* USER_VECT_TAB_ADDRESS */
}
 8000940:	bf00      	nop
 8000942:	46bd      	mov	sp, r7
 8000944:	f85d 7b04 	ldr.w	r7, [sp], #4
 8000948:	4770      	bx	lr
 800094a:	bf00      	nop
 800094c:	e000ed00 	.word	0xe000ed00

08000950 <Reset_Handler>:

    .section  .text.Reset_Handler
  .weak  Reset_Handler
  .type  Reset_Handler, %function
Reset_Handler:  
  ldr   sp, =_estack    		 /* set stack pointer */
 8000950:	f8df d034 	ldr.w	sp, [pc, #52]	@ 8000988 <LoopFillZerobss+0xe>

/* Call the clock system initialization function.*/
  bl  SystemInit  
 8000954:	f7ff ffea 	bl	800092c <SystemInit>

/* Copy the data segment initializers from flash to SRAM */  
  ldr r0, =_sdata
 8000958:	480c      	ldr	r0, [pc, #48]	@ (800098c <LoopFillZerobss+0x12>)
  ldr r1, =_edata
 800095a:	490d      	ldr	r1, [pc, #52]	@ (8000990 <LoopFillZerobss+0x16>)
  ldr r2, =_sidata
 800095c:	4a0d      	ldr	r2, [pc, #52]	@ (8000994 <LoopFillZerobss+0x1a>)
  movs r3, #0
 800095e:	2300      	movs	r3, #0
  b LoopCopyDataInit
 8000960:	e002      	b.n	8000968 <LoopCopyDataInit>

08000962 <CopyDataInit>:

CopyDataInit:
  ldr r4, [r2, r3]
 8000962:	58d4      	ldr	r4, [r2, r3]
  str r4, [r0, r3]
 8000964:	50c4      	str	r4, [r0, r3]
  adds r3, r3, #4
 8000966:	3304      	adds	r3, #4

08000968 <LoopCopyDataInit>:

LoopCopyDataInit:
  adds r4, r0, r3
 8000968:	18c4      	adds	r4, r0, r3
  cmp r4, r1
 800096a:	428c      	cmp	r4, r1
  bcc CopyDataInit
 800096c:	d3f9      	bcc.n	8000962 <CopyDataInit>
  
/* Zero fill the bss segment. */
  ldr r2, =_sbss
 800096e:	4a0a      	ldr	r2, [pc, #40]	@ (8000998 <LoopFillZerobss+0x1e>)
  ldr r4, =_ebss
 8000970:	4c0a      	ldr	r4, [pc, #40]	@ (800099c <LoopFillZerobss+0x22>)
  movs r3, #0
 8000972:	2300      	movs	r3, #0
  b LoopFillZerobss
 8000974:	e001      	b.n	800097a <LoopFillZerobss>

08000976 <FillZerobss>:

FillZerobss:
  str  r3, [r2]
 8000976:	6013      	str	r3, [r2, #0]
  adds r2, r2, #4
 8000978:	3204      	adds	r2, #4

0800097a <LoopFillZerobss>:

LoopFillZerobss:
  cmp r2, r4
 800097a:	42a2      	cmp	r2, r4
  bcc FillZerobss
 800097c:	d3fb      	bcc.n	8000976 <FillZerobss>
 
/* Call static constructors */
    bl __libc_init_array
 800097e:	f001 fa6b 	bl	8001e58 <__libc_init_array>
/* Call the application's entry point.*/
  bl  main
 8000982:	f7ff fdbd 	bl	8000500 <main>
  bx  lr    
 8000986:	4770      	bx	lr
  ldr   sp, =_estack    		 /* set stack pointer */
 8000988:	20018000 	.word	0x20018000
  ldr r0, =_sdata
 800098c:	20000000 	.word	0x20000000
  ldr r1, =_edata
 8000990:	2000000c 	.word	0x2000000c
  ldr r2, =_sidata
 8000994:	08001ee0 	.word	0x08001ee0
  ldr r2, =_sbss
 8000998:	2000000c 	.word	0x2000000c
  ldr r4, =_ebss
 800099c:	200000bc 	.word	0x200000bc

080009a0 <ADC_IRQHandler>:
 * @retval None       
*/
    .section  .text.Default_Handler,"ax",%progbits
Default_Handler:
Infinite_Loop:
  b  Infinite_Loop
 80009a0:	e7fe      	b.n	80009a0 <ADC_IRQHandler>
	...

080009a4 <HAL_Init>:
  *         need to ensure that the SysTick time base is always set to 1 millisecond
  *         to have correct HAL operation.
  * @retval HAL status
  */
HAL_StatusTypeDef HAL_Init(void)
{
 80009a4:	b580      	push	{r7, lr}
 80009a6:	af00      	add	r7, sp, #0
  /* Configure Flash prefetch, Instruction cache, Data cache */ 
#if (INSTRUCTION_CACHE_ENABLE != 0U)
  __HAL_FLASH_INSTRUCTION_CACHE_ENABLE();
 80009a8:	4b0e      	ldr	r3, [pc, #56]	@ (80009e4 <HAL_Init+0x40>)
 80009aa:	681b      	ldr	r3, [r3, #0]
 80009ac:	4a0d      	ldr	r2, [pc, #52]	@ (80009e4 <HAL_Init+0x40>)
 80009ae:	f443 7300 	orr.w	r3, r3, #512	@ 0x200
 80009b2:	6013      	str	r3, [r2, #0]
#endif /* INSTRUCTION_CACHE_ENABLE */

#if (DATA_CACHE_ENABLE != 0U)
  __HAL_FLASH_DATA_CACHE_ENABLE();
 80009b4:	4b0b      	ldr	r3, [pc, #44]	@ (80009e4 <HAL_Init+0x40>)
 80009b6:	681b      	ldr	r3, [r3, #0]
 80009b8:	4a0a      	ldr	r2, [pc, #40]	@ (80009e4 <HAL_Init+0x40>)
 80009ba:	f443 6380 	orr.w	r3, r3, #1024	@ 0x400
 80009be:	6013      	str	r3, [r2, #0]
#endif /* DATA_CACHE_ENABLE */

#if (PREFETCH_ENABLE != 0U)
  __HAL_FLASH_PREFETCH_BUFFER_ENABLE();
 80009c0:	4b08      	ldr	r3, [pc, #32]	@ (80009e4 <HAL_Init+0x40>)
 80009c2:	681b      	ldr	r3, [r3, #0]
 80009c4:	4a07      	ldr	r2, [pc, #28]	@ (80009e4 <HAL_Init+0x40>)
 80009c6:	f443 7380 	orr.w	r3, r3, #256	@ 0x100
 80009ca:	6013      	str	r3, [r2, #0]
#endif /* PREFETCH_ENABLE */

  /* Set Interrupt Group Priority */
  HAL_NVIC_SetPriorityGrouping(NVIC_PRIORITYGROUP_4);
 80009cc:	2003      	movs	r0, #3
 80009ce:	f000 f90d 	bl	8000bec <HAL_NVIC_SetPriorityGrouping>

  /* Use systick as time base source and configure 1ms tick (default clock after Reset is HSI) */
  HAL_InitTick(TICK_INT_PRIORITY);
 80009d2:	2000      	movs	r0, #0
 80009d4:	f000 f808 	bl	80009e8 <HAL_InitTick>

  /* Init the low level hardware */
  HAL_MspInit();
 80009d8:	f7ff fed4 	bl	8000784 <HAL_MspInit>

  /* Return function status */
  return HAL_OK;
 80009dc:	2300      	movs	r3, #0
}
 80009de:	4618      	mov	r0, r3
 80009e0:	bd80      	pop	{r7, pc}
 80009e2:	bf00      	nop
 80009e4:	40023c00 	.word	0x40023c00

080009e8 <HAL_InitTick>:
  *       implementation  in user file.
  * @param TickPriority Tick interrupt priority.
  * @retval HAL status
  */
__weak HAL_StatusTypeDef HAL_InitTick(uint32_t TickPriority)
{
 80009e8:	b580      	push	{r7, lr}
 80009ea:	b082      	sub	sp, #8
 80009ec:	af00      	add	r7, sp, #0
 80009ee:	6078      	str	r0, [r7, #4]
  /* Configure the SysTick to have interrupt in 1ms time basis*/
  if (HAL_SYSTICK_Config(SystemCoreClock / (1000U / uwTickFreq)) > 0U)
 80009f0:	4b12      	ldr	r3, [pc, #72]	@ (8000a3c <HAL_InitTick+0x54>)
 80009f2:	681a      	ldr	r2, [r3, #0]
 80009f4:	4b12      	ldr	r3, [pc, #72]	@ (8000a40 <HAL_InitTick+0x58>)
 80009f6:	781b      	ldrb	r3, [r3, #0]
 80009f8:	4619      	mov	r1, r3
 80009fa:	f44f 737a 	mov.w	r3, #1000	@ 0x3e8
 80009fe:	fbb3 f3f1 	udiv	r3, r3, r1
 8000a02:	fbb2 f3f3 	udiv	r3, r2, r3
 8000a06:	4618      	mov	r0, r3
 8000a08:	f000 f917 	bl	8000c3a <HAL_SYSTICK_Config>
 8000a0c:	4603      	mov	r3, r0
 8000a0e:	2b00      	cmp	r3, #0
 8000a10:	d001      	beq.n	8000a16 <HAL_InitTick+0x2e>
  {
    return HAL_ERROR;
 8000a12:	2301      	movs	r3, #1
 8000a14:	e00e      	b.n	8000a34 <HAL_InitTick+0x4c>
  }

  /* Configure the SysTick IRQ priority */
  if (TickPriority < (1UL << __NVIC_PRIO_BITS))
 8000a16:	687b      	ldr	r3, [r7, #4]
 8000a18:	2b0f      	cmp	r3, #15
 8000a1a:	d80a      	bhi.n	8000a32 <HAL_InitTick+0x4a>
  {
    HAL_NVIC_SetPriority(SysTick_IRQn, TickPriority, 0U);
 8000a1c:	2200      	movs	r2, #0
 8000a1e:	6879      	ldr	r1, [r7, #4]
 8000a20:	f04f 30ff 	mov.w	r0, #4294967295
 8000a24:	f000 f8ed 	bl	8000c02 <HAL_NVIC_SetPriority>
    uwTickPrio = TickPriority;
 8000a28:	4a06      	ldr	r2, [pc, #24]	@ (8000a44 <HAL_InitTick+0x5c>)
 8000a2a:	687b      	ldr	r3, [r7, #4]
 8000a2c:	6013      	str	r3, [r2, #0]
  {
    return HAL_ERROR;
  }

  /* Return function status */
  return HAL_OK;
 8000a2e:	2300      	movs	r3, #0
 8000a30:	e000      	b.n	8000a34 <HAL_InitTick+0x4c>
    return HAL_ERROR;
 8000a32:	2301      	movs	r3, #1
}
 8000a34:	4618      	mov	r0, r3
 8000a36:	3708      	adds	r7, #8
 8000a38:	46bd      	mov	sp, r7
 8000a3a:	bd80      	pop	{r7, pc}
 8000a3c:	20000000 	.word	0x20000000
 8000a40:	20000008 	.word	0x20000008
 8000a44:	20000004 	.word	0x20000004

08000a48 <HAL_IncTick>:
 * @note This function is declared as __weak to be overwritten in case of other 
  *      implementations in user file.
  * @retval None
  */
__weak void HAL_IncTick(void)
{
 8000a48:	b480      	push	{r7}
 8000a4a:	af00      	add	r7, sp, #0
  uwTick += uwTickFreq;
 8000a4c:	4b06      	ldr	r3, [pc, #24]	@ (8000a68 <HAL_IncTick+0x20>)
 8000a4e:	781b      	ldrb	r3, [r3, #0]
 8000a50:	461a      	mov	r2, r3
 8000a52:	4b06      	ldr	r3, [pc, #24]	@ (8000a6c <HAL_IncTick+0x24>)
 8000a54:	681b      	ldr	r3, [r3, #0]
 8000a56:	4413      	add	r3, r2
 8000a58:	4a04      	ldr	r2, [pc, #16]	@ (8000a6c <HAL_IncTick+0x24>)
 8000a5a:	6013      	str	r3, [r2, #0]
}
 8000a5c:	bf00      	nop
 8000a5e:	46bd      	mov	sp, r7
 8000a60:	f85d 7b04 	ldr.w	r7, [sp], #4
 8000a64:	4770      	bx	lr
 8000a66:	bf00      	nop
 8000a68:	20000008 	.word	0x20000008
 8000a6c:	200000b8 	.word	0x200000b8

08000a70 <HAL_GetTick>:
  * @note This function is declared as __weak to be overwritten in case of other 
  *       implementations in user file.
  * @retval tick value
  */
__weak uint32_t HAL_GetTick(void)
{
 8000a70:	b480      	push	{r7}
 8000a72:	af00      	add	r7, sp, #0
  return uwTick;
 8000a74:	4b03      	ldr	r3, [pc, #12]	@ (8000a84 <HAL_GetTick+0x14>)
 8000a76:	681b      	ldr	r3, [r3, #0]
}
 8000a78:	4618      	mov	r0, r3
 8000a7a:	46bd      	mov	sp, r7
 8000a7c:	f85d 7b04 	ldr.w	r7, [sp], #4
 8000a80:	4770      	bx	lr
 8000a82:	bf00      	nop
 8000a84:	200000b8 	.word	0x200000b8

08000a88 <__NVIC_SetPriorityGrouping>:
           In case of a conflict between priority grouping and available
           priority bits (__NVIC_PRIO_BITS), the smallest possible priority group is set.
  \param [in]      PriorityGroup  Priority grouping field.
 */
__STATIC_INLINE void __NVIC_SetPriorityGrouping(uint32_t PriorityGroup)
{
 8000a88:	b480      	push	{r7}
 8000a8a:	b085      	sub	sp, #20
 8000a8c:	af00      	add	r7, sp, #0
 8000a8e:	6078      	str	r0, [r7, #4]
  uint32_t reg_value;
  uint32_t PriorityGroupTmp = (PriorityGroup & (uint32_t)0x07UL);             /* only values 0..7 are used          */
 8000a90:	687b      	ldr	r3, [r7, #4]
 8000a92:	f003 0307 	and.w	r3, r3, #7
 8000a96:	60fb      	str	r3, [r7, #12]

  reg_value  =  SCB->AIRCR;                                                   /* read old register configuration    */
 8000a98:	4b0c      	ldr	r3, [pc, #48]	@ (8000acc <__NVIC_SetPriorityGrouping+0x44>)
 8000a9a:	68db      	ldr	r3, [r3, #12]
 8000a9c:	60bb      	str	r3, [r7, #8]
  reg_value &= ~((uint32_t)(SCB_AIRCR_VECTKEY_Msk | SCB_AIRCR_PRIGROUP_Msk)); /* clear bits to change               */
 8000a9e:	68ba      	ldr	r2, [r7, #8]
 8000aa0:	f64f 03ff 	movw	r3, #63743	@ 0xf8ff
 8000aa4:	4013      	ands	r3, r2
 8000aa6:	60bb      	str	r3, [r7, #8]
  reg_value  =  (reg_value                                   |
                ((uint32_t)0x5FAUL << SCB_AIRCR_VECTKEY_Pos) |
                (PriorityGroupTmp << SCB_AIRCR_PRIGROUP_Pos)  );              /* Insert write key and priority group */
 8000aa8:	68fb      	ldr	r3, [r7, #12]
 8000aaa:	021a      	lsls	r2, r3, #8
                ((uint32_t)0x5FAUL << SCB_AIRCR_VECTKEY_Pos) |
 8000aac:	68bb      	ldr	r3, [r7, #8]
 8000aae:	4313      	orrs	r3, r2
  reg_value  =  (reg_value                                   |
 8000ab0:	f043 63bf 	orr.w	r3, r3, #100139008	@ 0x5f80000
 8000ab4:	f443 3300 	orr.w	r3, r3, #131072	@ 0x20000
 8000ab8:	60bb      	str	r3, [r7, #8]
  SCB->AIRCR =  reg_value;
 8000aba:	4a04      	ldr	r2, [pc, #16]	@ (8000acc <__NVIC_SetPriorityGrouping+0x44>)
 8000abc:	68bb      	ldr	r3, [r7, #8]
 8000abe:	60d3      	str	r3, [r2, #12]
}
 8000ac0:	bf00      	nop
 8000ac2:	3714      	adds	r7, #20
 8000ac4:	46bd      	mov	sp, r7
 8000ac6:	f85d 7b04 	ldr.w	r7, [sp], #4
 8000aca:	4770      	bx	lr
 8000acc:	e000ed00 	.word	0xe000ed00

08000ad0 <__NVIC_GetPriorityGrouping>:
  \brief   Get Priority Grouping
  \details Reads the priority grouping field from the NVIC Interrupt Controller.
  \return                Priority grouping field (SCB->AIRCR [10:8] PRIGROUP field).
 */
__STATIC_INLINE uint32_t __NVIC_GetPriorityGrouping(void)
{
 8000ad0:	b480      	push	{r7}
 8000ad2:	af00      	add	r7, sp, #0
  return ((uint32_t)((SCB->AIRCR & SCB_AIRCR_PRIGROUP_Msk) >> SCB_AIRCR_PRIGROUP_Pos));
 8000ad4:	4b04      	ldr	r3, [pc, #16]	@ (8000ae8 <__NVIC_GetPriorityGrouping+0x18>)
 8000ad6:	68db      	ldr	r3, [r3, #12]
 8000ad8:	0a1b      	lsrs	r3, r3, #8
 8000ada:	f003 0307 	and.w	r3, r3, #7
}
 8000ade:	4618      	mov	r0, r3
 8000ae0:	46bd      	mov	sp, r7
 8000ae2:	f85d 7b04 	ldr.w	r7, [sp], #4
 8000ae6:	4770      	bx	lr
 8000ae8:	e000ed00 	.word	0xe000ed00

08000aec <__NVIC_SetPriority>:
  \param [in]      IRQn  Interrupt number.
  \param [in]  priority  Priority to set.
  \note    The priority cannot be set for every processor exception.
 */
__STATIC_INLINE void __NVIC_SetPriority(IRQn_Type IRQn, uint32_t priority)
{
 8000aec:	b480      	push	{r7}
 8000aee:	b083      	sub	sp, #12
 8000af0:	af00      	add	r7, sp, #0
 8000af2:	4603      	mov	r3, r0
 8000af4:	6039      	str	r1, [r7, #0]
 8000af6:	71fb      	strb	r3, [r7, #7]
  if ((int32_t)(IRQn) >= 0)
 8000af8:	f997 3007 	ldrsb.w	r3, [r7, #7]
 8000afc:	2b00      	cmp	r3, #0
 8000afe:	db0a      	blt.n	8000b16 <__NVIC_SetPriority+0x2a>
  {
    NVIC->IP[((uint32_t)IRQn)]               = (uint8_t)((priority << (8U - __NVIC_PRIO_BITS)) & (uint32_t)0xFFUL);
 8000b00:	683b      	ldr	r3, [r7, #0]
 8000b02:	b2da      	uxtb	r2, r3
 8000b04:	490c      	ldr	r1, [pc, #48]	@ (8000b38 <__NVIC_SetPriority+0x4c>)
 8000b06:	f997 3007 	ldrsb.w	r3, [r7, #7]
 8000b0a:	0112      	lsls	r2, r2, #4
 8000b0c:	b2d2      	uxtb	r2, r2
 8000b0e:	440b      	add	r3, r1
 8000b10:	f883 2300 	strb.w	r2, [r3, #768]	@ 0x300
  }
  else
  {
    SCB->SHP[(((uint32_t)IRQn) & 0xFUL)-4UL] = (uint8_t)((priority << (8U - __NVIC_PRIO_BITS)) & (uint32_t)0xFFUL);
  }
}
 8000b14:	e00a      	b.n	8000b2c <__NVIC_SetPriority+0x40>
    SCB->SHP[(((uint32_t)IRQn) & 0xFUL)-4UL] = (uint8_t)((priority << (8U - __NVIC_PRIO_BITS)) & (uint32_t)0xFFUL);
 8000b16:	683b      	ldr	r3, [r7, #0]
 8000b18:	b2da      	uxtb	r2, r3
 8000b1a:	4908      	ldr	r1, [pc, #32]	@ (8000b3c <__NVIC_SetPriority+0x50>)
 8000b1c:	79fb      	ldrb	r3, [r7, #7]
 8000b1e:	f003 030f 	and.w	r3, r3, #15
 8000b22:	3b04      	subs	r3, #4
 8000b24:	0112      	lsls	r2, r2, #4
 8000b26:	b2d2      	uxtb	r2, r2
 8000b28:	440b      	add	r3, r1
 8000b2a:	761a      	strb	r2, [r3, #24]
}
 8000b2c:	bf00      	nop
 8000b2e:	370c      	adds	r7, #12
 8000b30:	46bd      	mov	sp, r7
 8000b32:	f85d 7b04 	ldr.w	r7, [sp], #4
 8000b36:	4770      	bx	lr
 8000b38:	e000e100 	.word	0xe000e100
 8000b3c:	e000ed00 	.word	0xe000ed00

08000b40 <NVIC_EncodePriority>:
  \param [in]   PreemptPriority  Preemptive priority value (starting from 0).
  \param [in]       SubPriority  Subpriority value (starting from 0).
  \return                        Encoded priority. Value can be used in the function \ref NVIC_SetPriority().
 */
__STATIC_INLINE uint32_t NVIC_EncodePriority (uint32_t PriorityGroup, uint32_t PreemptPriority, uint32_t SubPriority)
{
 8000b40:	b480      	push	{r7}
 8000b42:	b089      	sub	sp, #36	@ 0x24
 8000b44:	af00      	add	r7, sp, #0
 8000b46:	60f8      	str	r0, [r7, #12]
 8000b48:	60b9      	str	r1, [r7, #8]
 8000b4a:	607a      	str	r2, [r7, #4]
  uint32_t PriorityGroupTmp = (PriorityGroup & (uint32_t)0x07UL);   /* only values 0..7 are used          */
 8000b4c:	68fb      	ldr	r3, [r7, #12]
 8000b4e:	f003 0307 	and.w	r3, r3, #7
 8000b52:	61fb      	str	r3, [r7, #28]
  uint32_t PreemptPriorityBits;
  uint32_t SubPriorityBits;

  PreemptPriorityBits = ((7UL - PriorityGroupTmp) > (uint32_t)(__NVIC_PRIO_BITS)) ? (uint32_t)(__NVIC_PRIO_BITS) : (uint32_t)(7UL - PriorityGroupTmp);
 8000b54:	69fb      	ldr	r3, [r7, #28]
 8000b56:	f1c3 0307 	rsb	r3, r3, #7
 8000b5a:	2b04      	cmp	r3, #4
 8000b5c:	bf28      	it	cs
 8000b5e:	2304      	movcs	r3, #4
 8000b60:	61bb      	str	r3, [r7, #24]
  SubPriorityBits     = ((PriorityGroupTmp + (uint32_t)(__NVIC_PRIO_BITS)) < (uint32_t)7UL) ? (uint32_t)0UL : (uint32_t)((PriorityGroupTmp - 7UL) + (uint32_t)(__NVIC_PRIO_BITS));
 8000b62:	69fb      	ldr	r3, [r7, #28]
 8000b64:	3304      	adds	r3, #4
 8000b66:	2b06      	cmp	r3, #6
 8000b68:	d902      	bls.n	8000b70 <NVIC_EncodePriority+0x30>
 8000b6a:	69fb      	ldr	r3, [r7, #28]
 8000b6c:	3b03      	subs	r3, #3
 8000b6e:	e000      	b.n	8000b72 <NVIC_EncodePriority+0x32>
 8000b70:	2300      	movs	r3, #0
 8000b72:	617b      	str	r3, [r7, #20]

  return (
           ((PreemptPriority & (uint32_t)((1UL << (PreemptPriorityBits)) - 1UL)) << SubPriorityBits) |
 8000b74:	f04f 32ff 	mov.w	r2, #4294967295
 8000b78:	69bb      	ldr	r3, [r7, #24]
 8000b7a:	fa02 f303 	lsl.w	r3, r2, r3
 8000b7e:	43da      	mvns	r2, r3
 8000b80:	68bb      	ldr	r3, [r7, #8]
 8000b82:	401a      	ands	r2, r3
 8000b84:	697b      	ldr	r3, [r7, #20]
 8000b86:	409a      	lsls	r2, r3
           ((SubPriority     & (uint32_t)((1UL << (SubPriorityBits    )) - 1UL)))
 8000b88:	f04f 31ff 	mov.w	r1, #4294967295
 8000b8c:	697b      	ldr	r3, [r7, #20]
 8000b8e:	fa01 f303 	lsl.w	r3, r1, r3
 8000b92:	43d9      	mvns	r1, r3
 8000b94:	687b      	ldr	r3, [r7, #4]
 8000b96:	400b      	ands	r3, r1
           ((PreemptPriority & (uint32_t)((1UL << (PreemptPriorityBits)) - 1UL)) << SubPriorityBits) |
 8000b98:	4313      	orrs	r3, r2
         );
}
 8000b9a:	4618      	mov	r0, r3
 8000b9c:	3724      	adds	r7, #36	@ 0x24
 8000b9e:	46bd      	mov	sp, r7
 8000ba0:	f85d 7b04 	ldr.w	r7, [sp], #4
 8000ba4:	4770      	bx	lr
	...

08000ba8 <SysTick_Config>:
  \note    When the variable <b>__Vendor_SysTickConfig</b> is set to 1, then the
           function <b>SysTick_Config</b> is not included. In this case, the file <b><i>device</i>.h</b>
           must contain a vendor-specific implementation of this function.
 */
__STATIC_INLINE uint32_t SysTick_Config(uint32_t ticks)
{
 8000ba8:	b580      	push	{r7, lr}
 8000baa:	b082      	sub	sp, #8
 8000bac:	af00      	add	r7, sp, #0
 8000bae:	6078      	str	r0, [r7, #4]
  if ((ticks - 1UL) > SysTick_LOAD_RELOAD_Msk)
 8000bb0:	687b      	ldr	r3, [r7, #4]
 8000bb2:	3b01      	subs	r3, #1
 8000bb4:	f1b3 7f80 	cmp.w	r3, #16777216	@ 0x1000000
 8000bb8:	d301      	bcc.n	8000bbe <SysTick_Config+0x16>
  {
    return (1UL);                                                   /* Reload value impossible */
 8000bba:	2301      	movs	r3, #1
 8000bbc:	e00f      	b.n	8000bde <SysTick_Config+0x36>
  }

  SysTick->LOAD  = (uint32_t)(ticks - 1UL);                         /* set reload register */
 8000bbe:	4a0a      	ldr	r2, [pc, #40]	@ (8000be8 <SysTick_Config+0x40>)
 8000bc0:	687b      	ldr	r3, [r7, #4]
 8000bc2:	3b01      	subs	r3, #1
 8000bc4:	6053      	str	r3, [r2, #4]
  NVIC_SetPriority (SysTick_IRQn, (1UL << __NVIC_PRIO_BITS) - 1UL); /* set Priority for Systick Interrupt */
 8000bc6:	210f      	movs	r1, #15
 8000bc8:	f04f 30ff 	mov.w	r0, #4294967295
 8000bcc:	f7ff ff8e 	bl	8000aec <__NVIC_SetPriority>
  SysTick->VAL   = 0UL;                                             /* Load the SysTick Counter Value */
 8000bd0:	4b05      	ldr	r3, [pc, #20]	@ (8000be8 <SysTick_Config+0x40>)
 8000bd2:	2200      	movs	r2, #0
 8000bd4:	609a      	str	r2, [r3, #8]
  SysTick->CTRL  = SysTick_CTRL_CLKSOURCE_Msk |
 8000bd6:	4b04      	ldr	r3, [pc, #16]	@ (8000be8 <SysTick_Config+0x40>)
 8000bd8:	2207      	movs	r2, #7
 8000bda:	601a      	str	r2, [r3, #0]
                   SysTick_CTRL_TICKINT_Msk   |
                   SysTick_CTRL_ENABLE_Msk;                         /* Enable SysTick IRQ and SysTick Timer */
  return (0UL);                                                     /* Function successful */
 8000bdc:	2300      	movs	r3, #0
}
 8000bde:	4618      	mov	r0, r3
 8000be0:	3708      	adds	r7, #8
 8000be2:	46bd      	mov	sp, r7
 8000be4:	bd80      	pop	{r7, pc}
 8000be6:	bf00      	nop
 8000be8:	e000e010 	.word	0xe000e010

08000bec <HAL_NVIC_SetPriorityGrouping>:
  * @note   When the NVIC_PriorityGroup_0 is selected, IRQ preemption is no more possible. 
  *         The pending IRQ priority will be managed only by the subpriority. 
  * @retval None
  */
void HAL_NVIC_SetPriorityGrouping(uint32_t PriorityGroup)
{
 8000bec:	b580      	push	{r7, lr}
 8000bee:	b082      	sub	sp, #8
 8000bf0:	af00      	add	r7, sp, #0
 8000bf2:	6078      	str	r0, [r7, #4]
  /* Check the parameters */
  assert_param(IS_NVIC_PRIORITY_GROUP(PriorityGroup));
  
  /* Set the PRIGROUP[10:8] bits according to the PriorityGroup parameter value */
  NVIC_SetPriorityGrouping(PriorityGroup);
 8000bf4:	6878      	ldr	r0, [r7, #4]
 8000bf6:	f7ff ff47 	bl	8000a88 <__NVIC_SetPriorityGrouping>
}
 8000bfa:	bf00      	nop
 8000bfc:	3708      	adds	r7, #8
 8000bfe:	46bd      	mov	sp, r7
 8000c00:	bd80      	pop	{r7, pc}

08000c02 <HAL_NVIC_SetPriority>:
  *         This parameter can be a value between 0 and 15
  *         A lower priority value indicates a higher priority.          
  * @retval None
  */
void HAL_NVIC_SetPriority(IRQn_Type IRQn, uint32_t PreemptPriority, uint32_t SubPriority)
{ 
 8000c02:	b580      	push	{r7, lr}
 8000c04:	b086      	sub	sp, #24
 8000c06:	af00      	add	r7, sp, #0
 8000c08:	4603      	mov	r3, r0
 8000c0a:	60b9      	str	r1, [r7, #8]
 8000c0c:	607a      	str	r2, [r7, #4]
 8000c0e:	73fb      	strb	r3, [r7, #15]
  uint32_t prioritygroup = 0x00U;
 8000c10:	2300      	movs	r3, #0
 8000c12:	617b      	str	r3, [r7, #20]
  
  /* Check the parameters */
  assert_param(IS_NVIC_SUB_PRIORITY(SubPriority));
  assert_param(IS_NVIC_PREEMPTION_PRIORITY(PreemptPriority));
  
  prioritygroup = NVIC_GetPriorityGrouping();
 8000c14:	f7ff ff5c 	bl	8000ad0 <__NVIC_GetPriorityGrouping>
 8000c18:	6178      	str	r0, [r7, #20]
  
  NVIC_SetPriority(IRQn, NVIC_EncodePriority(prioritygroup, PreemptPriority, SubPriority));
 8000c1a:	687a      	ldr	r2, [r7, #4]
 8000c1c:	68b9      	ldr	r1, [r7, #8]
 8000c1e:	6978      	ldr	r0, [r7, #20]
 8000c20:	f7ff ff8e 	bl	8000b40 <NVIC_EncodePriority>
 8000c24:	4602      	mov	r2, r0
 8000c26:	f997 300f 	ldrsb.w	r3, [r7, #15]
 8000c2a:	4611      	mov	r1, r2
 8000c2c:	4618      	mov	r0, r3
 8000c2e:	f7ff ff5d 	bl	8000aec <__NVIC_SetPriority>
}
 8000c32:	bf00      	nop
 8000c34:	3718      	adds	r7, #24
 8000c36:	46bd      	mov	sp, r7
 8000c38:	bd80      	pop	{r7, pc}

08000c3a <HAL_SYSTICK_Config>:
  * @param  TicksNumb Specifies the ticks Number of ticks between two interrupts.
  * @retval status:  - 0  Function succeeded.
  *                  - 1  Function failed.
  */
uint32_t HAL_SYSTICK_Config(uint32_t TicksNumb)
{
 8000c3a:	b580      	push	{r7, lr}
 8000c3c:	b082      	sub	sp, #8
 8000c3e:	af00      	add	r7, sp, #0
 8000c40:	6078      	str	r0, [r7, #4]
   return SysTick_Config(TicksNumb);
 8000c42:	6878      	ldr	r0, [r7, #4]
 8000c44:	f7ff ffb0 	bl	8000ba8 <SysTick_Config>
 8000c48:	4603      	mov	r3, r0
}
 8000c4a:	4618      	mov	r0, r3
 8000c4c:	3708      	adds	r7, #8
 8000c4e:	46bd      	mov	sp, r7
 8000c50:	bd80      	pop	{r7, pc}
	...

08000c54 <HAL_GPIO_Init>:
  * @param  GPIO_Init pointer to a GPIO_InitTypeDef structure that contains
  *         the configuration information for the specified GPIO peripheral.
  * @retval None
  */
void HAL_GPIO_Init(GPIO_TypeDef  *GPIOx, GPIO_InitTypeDef *GPIO_Init)
{
 8000c54:	b480      	push	{r7}
 8000c56:	b089      	sub	sp, #36	@ 0x24
 8000c58:	af00      	add	r7, sp, #0
 8000c5a:	6078      	str	r0, [r7, #4]
 8000c5c:	6039      	str	r1, [r7, #0]
  uint32_t position;
  uint32_t ioposition = 0x00U;
 8000c5e:	2300      	movs	r3, #0
 8000c60:	617b      	str	r3, [r7, #20]
  uint32_t iocurrent = 0x00U;
 8000c62:	2300      	movs	r3, #0
 8000c64:	613b      	str	r3, [r7, #16]
  uint32_t temp = 0x00U;
 8000c66:	2300      	movs	r3, #0
 8000c68:	61bb      	str	r3, [r7, #24]
  assert_param(IS_GPIO_ALL_INSTANCE(GPIOx));
  assert_param(IS_GPIO_PIN(GPIO_Init->Pin));
  assert_param(IS_GPIO_MODE(GPIO_Init->Mode));

  /* Configure the port pins */
  for(position = 0U; position < GPIO_NUMBER; position++)
 8000c6a:	2300      	movs	r3, #0
 8000c6c:	61fb      	str	r3, [r7, #28]
 8000c6e:	e159      	b.n	8000f24 <HAL_GPIO_Init+0x2d0>
  {
    /* Get the IO position */
    ioposition = 0x01U << position;
 8000c70:	2201      	movs	r2, #1
 8000c72:	69fb      	ldr	r3, [r7, #28]
 8000c74:	fa02 f303 	lsl.w	r3, r2, r3
 8000c78:	617b      	str	r3, [r7, #20]
    /* Get the current IO position */
    iocurrent = (uint32_t)(GPIO_Init->Pin) & ioposition;
 8000c7a:	683b      	ldr	r3, [r7, #0]
 8000c7c:	681b      	ldr	r3, [r3, #0]
 8000c7e:	697a      	ldr	r2, [r7, #20]
 8000c80:	4013      	ands	r3, r2
 8000c82:	613b      	str	r3, [r7, #16]

    if(iocurrent == ioposition)
 8000c84:	693a      	ldr	r2, [r7, #16]
 8000c86:	697b      	ldr	r3, [r7, #20]
 8000c88:	429a      	cmp	r2, r3
 8000c8a:	f040 8148 	bne.w	8000f1e <HAL_GPIO_Init+0x2ca>
    {
      /*--------------------- GPIO Mode Configuration ------------------------*/
      /* In case of Output or Alternate function mode selection */
      if(((GPIO_Init->Mode & GPIO_MODE) == MODE_OUTPUT) || \
 8000c8e:	683b      	ldr	r3, [r7, #0]
 8000c90:	685b      	ldr	r3, [r3, #4]
 8000c92:	f003 0303 	and.w	r3, r3, #3
 8000c96:	2b01      	cmp	r3, #1
 8000c98:	d005      	beq.n	8000ca6 <HAL_GPIO_Init+0x52>
          (GPIO_Init->Mode & GPIO_MODE) == MODE_AF)
 8000c9a:	683b      	ldr	r3, [r7, #0]
 8000c9c:	685b      	ldr	r3, [r3, #4]
 8000c9e:	f003 0303 	and.w	r3, r3, #3
      if(((GPIO_Init->Mode & GPIO_MODE) == MODE_OUTPUT) || \
 8000ca2:	2b02      	cmp	r3, #2
 8000ca4:	d130      	bne.n	8000d08 <HAL_GPIO_Init+0xb4>
      {
        /* Check the Speed parameter */
        assert_param(IS_GPIO_SPEED(GPIO_Init->Speed));
        /* Configure the IO Speed */
        temp = GPIOx->OSPEEDR; 
 8000ca6:	687b      	ldr	r3, [r7, #4]
 8000ca8:	689b      	ldr	r3, [r3, #8]
 8000caa:	61bb      	str	r3, [r7, #24]
        temp &= ~(GPIO_OSPEEDER_OSPEEDR0 << (position * 2U));
 8000cac:	69fb      	ldr	r3, [r7, #28]
 8000cae:	005b      	lsls	r3, r3, #1
 8000cb0:	2203      	movs	r2, #3
 8000cb2:	fa02 f303 	lsl.w	r3, r2, r3
 8000cb6:	43db      	mvns	r3, r3
 8000cb8:	69ba      	ldr	r2, [r7, #24]
 8000cba:	4013      	ands	r3, r2
 8000cbc:	61bb      	str	r3, [r7, #24]
        temp |= (GPIO_Init->Speed << (position * 2U));
 8000cbe:	683b      	ldr	r3, [r7, #0]
 8000cc0:	68da      	ldr	r2, [r3, #12]
 8000cc2:	69fb      	ldr	r3, [r7, #28]
 8000cc4:	005b      	lsls	r3, r3, #1
 8000cc6:	fa02 f303 	lsl.w	r3, r2, r3
 8000cca:	69ba      	ldr	r2, [r7, #24]
 8000ccc:	4313      	orrs	r3, r2
 8000cce:	61bb      	str	r3, [r7, #24]
        GPIOx->OSPEEDR = temp;
 8000cd0:	687b      	ldr	r3, [r7, #4]
 8000cd2:	69ba      	ldr	r2, [r7, #24]
 8000cd4:	609a      	str	r2, [r3, #8]

        /* Configure the IO Output Type */
        temp = GPIOx->OTYPER;
 8000cd6:	687b      	ldr	r3, [r7, #4]
 8000cd8:	685b      	ldr	r3, [r3, #4]
 8000cda:	61bb      	str	r3, [r7, #24]
        temp &= ~(GPIO_OTYPER_OT_0 << position) ;
 8000cdc:	2201      	movs	r2, #1
 8000cde:	69fb      	ldr	r3, [r7, #28]
 8000ce0:	fa02 f303 	lsl.w	r3, r2, r3
 8000ce4:	43db      	mvns	r3, r3
 8000ce6:	69ba      	ldr	r2, [r7, #24]
 8000ce8:	4013      	ands	r3, r2
 8000cea:	61bb      	str	r3, [r7, #24]
        temp |= (((GPIO_Init->Mode & OUTPUT_TYPE) >> OUTPUT_TYPE_Pos) << position);
 8000cec:	683b      	ldr	r3, [r7, #0]
 8000cee:	685b      	ldr	r3, [r3, #4]
 8000cf0:	091b      	lsrs	r3, r3, #4
 8000cf2:	f003 0201 	and.w	r2, r3, #1
 8000cf6:	69fb      	ldr	r3, [r7, #28]
 8000cf8:	fa02 f303 	lsl.w	r3, r2, r3
 8000cfc:	69ba      	ldr	r2, [r7, #24]
 8000cfe:	4313      	orrs	r3, r2
 8000d00:	61bb      	str	r3, [r7, #24]
        GPIOx->OTYPER = temp;
 8000d02:	687b      	ldr	r3, [r7, #4]
 8000d04:	69ba      	ldr	r2, [r7, #24]
 8000d06:	605a      	str	r2, [r3, #4]
       }

      if((GPIO_Init->Mode & GPIO_MODE) != MODE_ANALOG)
 8000d08:	683b      	ldr	r3, [r7, #0]
 8000d0a:	685b      	ldr	r3, [r3, #4]
 8000d0c:	f003 0303 	and.w	r3, r3, #3
 8000d10:	2b03      	cmp	r3, #3
 8000d12:	d017      	beq.n	8000d44 <HAL_GPIO_Init+0xf0>
      {
        /* Check the parameters */
        assert_param(IS_GPIO_PULL(GPIO_Init->Pull));
        
        /* Activate the Pull-up or Pull down resistor for the current IO */
        temp = GPIOx->PUPDR;
 8000d14:	687b      	ldr	r3, [r7, #4]
 8000d16:	68db      	ldr	r3, [r3, #12]
 8000d18:	61bb      	str	r3, [r7, #24]
        temp &= ~(GPIO_PUPDR_PUPDR0 << (position * 2U));
 8000d1a:	69fb      	ldr	r3, [r7, #28]
 8000d1c:	005b      	lsls	r3, r3, #1
 8000d1e:	2203      	movs	r2, #3
 8000d20:	fa02 f303 	lsl.w	r3, r2, r3
 8000d24:	43db      	mvns	r3, r3
 8000d26:	69ba      	ldr	r2, [r7, #24]
 8000d28:	4013      	ands	r3, r2
 8000d2a:	61bb      	str	r3, [r7, #24]
        temp |= ((GPIO_Init->Pull) << (position * 2U));
 8000d2c:	683b      	ldr	r3, [r7, #0]
 8000d2e:	689a      	ldr	r2, [r3, #8]
 8000d30:	69fb      	ldr	r3, [r7, #28]
 8000d32:	005b      	lsls	r3, r3, #1
 8000d34:	fa02 f303 	lsl.w	r3, r2, r3
 8000d38:	69ba      	ldr	r2, [r7, #24]
 8000d3a:	4313      	orrs	r3, r2
 8000d3c:	61bb      	str	r3, [r7, #24]
        GPIOx->PUPDR = temp;
 8000d3e:	687b      	ldr	r3, [r7, #4]
 8000d40:	69ba      	ldr	r2, [r7, #24]
 8000d42:	60da      	str	r2, [r3, #12]
      }

      /* In case of Alternate function mode selection */
      if((GPIO_Init->Mode & GPIO_MODE) == MODE_AF)
 8000d44:	683b      	ldr	r3, [r7, #0]
 8000d46:	685b      	ldr	r3, [r3, #4]
 8000d48:	f003 0303 	and.w	r3, r3, #3
 8000d4c:	2b02      	cmp	r3, #2
 8000d4e:	d123      	bne.n	8000d98 <HAL_GPIO_Init+0x144>
      {
        /* Check the Alternate function parameter */
        assert_param(IS_GPIO_AF(GPIO_Init->Alternate));
        /* Configure Alternate function mapped with the current IO */
        temp = GPIOx->AFR[position >> 3U];
 8000d50:	69fb      	ldr	r3, [r7, #28]
 8000d52:	08da      	lsrs	r2, r3, #3
 8000d54:	687b      	ldr	r3, [r7, #4]
 8000d56:	3208      	adds	r2, #8
 8000d58:	f853 3022 	ldr.w	r3, [r3, r2, lsl #2]
 8000d5c:	61bb      	str	r3, [r7, #24]
        temp &= ~(0xFU << ((uint32_t)(position & 0x07U) * 4U)) ;
 8000d5e:	69fb      	ldr	r3, [r7, #28]
 8000d60:	f003 0307 	and.w	r3, r3, #7
 8000d64:	009b      	lsls	r3, r3, #2
 8000d66:	220f      	movs	r2, #15
 8000d68:	fa02 f303 	lsl.w	r3, r2, r3
 8000d6c:	43db      	mvns	r3, r3
 8000d6e:	69ba      	ldr	r2, [r7, #24]
 8000d70:	4013      	ands	r3, r2
 8000d72:	61bb      	str	r3, [r7, #24]
        temp |= ((uint32_t)(GPIO_Init->Alternate) << (((uint32_t)position & 0x07U) * 4U));
 8000d74:	683b      	ldr	r3, [r7, #0]
 8000d76:	691a      	ldr	r2, [r3, #16]
 8000d78:	69fb      	ldr	r3, [r7, #28]
 8000d7a:	f003 0307 	and.w	r3, r3, #7
 8000d7e:	009b      	lsls	r3, r3, #2
 8000d80:	fa02 f303 	lsl.w	r3, r2, r3
 8000d84:	69ba      	ldr	r2, [r7, #24]
 8000d86:	4313      	orrs	r3, r2
 8000d88:	61bb      	str	r3, [r7, #24]
        GPIOx->AFR[position >> 3U] = temp;
 8000d8a:	69fb      	ldr	r3, [r7, #28]
 8000d8c:	08da      	lsrs	r2, r3, #3
 8000d8e:	687b      	ldr	r3, [r7, #4]
 8000d90:	3208      	adds	r2, #8
 8000d92:	69b9      	ldr	r1, [r7, #24]
 8000d94:	f843 1022 	str.w	r1, [r3, r2, lsl #2]
      }

      /* Configure IO Direction mode (Input, Output, Alternate or Analog) */
      temp = GPIOx->MODER;
 8000d98:	687b      	ldr	r3, [r7, #4]
 8000d9a:	681b      	ldr	r3, [r3, #0]
 8000d9c:	61bb      	str	r3, [r7, #24]
      temp &= ~(GPIO_MODER_MODER0 << (position * 2U));
 8000d9e:	69fb      	ldr	r3, [r7, #28]
 8000da0:	005b      	lsls	r3, r3, #1
 8000da2:	2203      	movs	r2, #3
 8000da4:	fa02 f303 	lsl.w	r3, r2, r3
 8000da8:	43db      	mvns	r3, r3
 8000daa:	69ba      	ldr	r2, [r7, #24]
 8000dac:	4013      	ands	r3, r2
 8000dae:	61bb      	str	r3, [r7, #24]
      temp |= ((GPIO_Init->Mode & GPIO_MODE) << (position * 2U));
 8000db0:	683b      	ldr	r3, [r7, #0]
 8000db2:	685b      	ldr	r3, [r3, #4]
 8000db4:	f003 0203 	and.w	r2, r3, #3
 8000db8:	69fb      	ldr	r3, [r7, #28]
 8000dba:	005b      	lsls	r3, r3, #1
 8000dbc:	fa02 f303 	lsl.w	r3, r2, r3
 8000dc0:	69ba      	ldr	r2, [r7, #24]
 8000dc2:	4313      	orrs	r3, r2
 8000dc4:	61bb      	str	r3, [r7, #24]
      GPIOx->MODER = temp;
 8000dc6:	687b      	ldr	r3, [r7, #4]
 8000dc8:	69ba      	ldr	r2, [r7, #24]
 8000dca:	601a      	str	r2, [r3, #0]

      /*--------------------- EXTI Mode Configuration ------------------------*/
      /* Configure the External Interrupt or event for the current IO */
      if((GPIO_Init->Mode & EXTI_MODE) != 0x00U)
 8000dcc:	683b      	ldr	r3, [r7, #0]
 8000dce:	685b      	ldr	r3, [r3, #4]
 8000dd0:	f403 3340 	and.w	r3, r3, #196608	@ 0x30000
 8000dd4:	2b00      	cmp	r3, #0
 8000dd6:	f000 80a2 	beq.w	8000f1e <HAL_GPIO_Init+0x2ca>
      {
        /* Enable SYSCFG Clock */
        __HAL_RCC_SYSCFG_CLK_ENABLE();
 8000dda:	2300      	movs	r3, #0
 8000ddc:	60fb      	str	r3, [r7, #12]
 8000dde:	4b57      	ldr	r3, [pc, #348]	@ (8000f3c <HAL_GPIO_Init+0x2e8>)
 8000de0:	6c5b      	ldr	r3, [r3, #68]	@ 0x44
 8000de2:	4a56      	ldr	r2, [pc, #344]	@ (8000f3c <HAL_GPIO_Init+0x2e8>)
 8000de4:	f443 4380 	orr.w	r3, r3, #16384	@ 0x4000
 8000de8:	6453      	str	r3, [r2, #68]	@ 0x44
 8000dea:	4b54      	ldr	r3, [pc, #336]	@ (8000f3c <HAL_GPIO_Init+0x2e8>)
 8000dec:	6c5b      	ldr	r3, [r3, #68]	@ 0x44
 8000dee:	f403 4380 	and.w	r3, r3, #16384	@ 0x4000
 8000df2:	60fb      	str	r3, [r7, #12]
 8000df4:	68fb      	ldr	r3, [r7, #12]

        temp = SYSCFG->EXTICR[position >> 2U];
 8000df6:	4a52      	ldr	r2, [pc, #328]	@ (8000f40 <HAL_GPIO_Init+0x2ec>)
 8000df8:	69fb      	ldr	r3, [r7, #28]
 8000dfa:	089b      	lsrs	r3, r3, #2
 8000dfc:	3302      	adds	r3, #2
 8000dfe:	f852 3023 	ldr.w	r3, [r2, r3, lsl #2]
 8000e02:	61bb      	str	r3, [r7, #24]
        temp &= ~(0x0FU << (4U * (position & 0x03U)));
 8000e04:	69fb      	ldr	r3, [r7, #28]
 8000e06:	f003 0303 	and.w	r3, r3, #3
 8000e0a:	009b      	lsls	r3, r3, #2
 8000e0c:	220f      	movs	r2, #15
 8000e0e:	fa02 f303 	lsl.w	r3, r2, r3
 8000e12:	43db      	mvns	r3, r3
 8000e14:	69ba      	ldr	r2, [r7, #24]
 8000e16:	4013      	ands	r3, r2
 8000e18:	61bb      	str	r3, [r7, #24]
        temp |= ((uint32_t)(GPIO_GET_INDEX(GPIOx)) << (4U * (position & 0x03U)));
 8000e1a:	687b      	ldr	r3, [r7, #4]
 8000e1c:	4a49      	ldr	r2, [pc, #292]	@ (8000f44 <HAL_GPIO_Init+0x2f0>)
 8000e1e:	4293      	cmp	r3, r2
 8000e20:	d019      	beq.n	8000e56 <HAL_GPIO_Init+0x202>
 8000e22:	687b      	ldr	r3, [r7, #4]
 8000e24:	4a48      	ldr	r2, [pc, #288]	@ (8000f48 <HAL_GPIO_Init+0x2f4>)
 8000e26:	4293      	cmp	r3, r2
 8000e28:	d013      	beq.n	8000e52 <HAL_GPIO_Init+0x1fe>
 8000e2a:	687b      	ldr	r3, [r7, #4]
 8000e2c:	4a47      	ldr	r2, [pc, #284]	@ (8000f4c <HAL_GPIO_Init+0x2f8>)
 8000e2e:	4293      	cmp	r3, r2
 8000e30:	d00d      	beq.n	8000e4e <HAL_GPIO_Init+0x1fa>
 8000e32:	687b      	ldr	r3, [r7, #4]
 8000e34:	4a46      	ldr	r2, [pc, #280]	@ (8000f50 <HAL_GPIO_Init+0x2fc>)
 8000e36:	4293      	cmp	r3, r2
 8000e38:	d007      	beq.n	8000e4a <HAL_GPIO_Init+0x1f6>
 8000e3a:	687b      	ldr	r3, [r7, #4]
 8000e3c:	4a45      	ldr	r2, [pc, #276]	@ (8000f54 <HAL_GPIO_Init+0x300>)
 8000e3e:	4293      	cmp	r3, r2
 8000e40:	d101      	bne.n	8000e46 <HAL_GPIO_Init+0x1f2>
 8000e42:	2304      	movs	r3, #4
 8000e44:	e008      	b.n	8000e58 <HAL_GPIO_Init+0x204>
 8000e46:	2307      	movs	r3, #7
 8000e48:	e006      	b.n	8000e58 <HAL_GPIO_Init+0x204>
 8000e4a:	2303      	movs	r3, #3
 8000e4c:	e004      	b.n	8000e58 <HAL_GPIO_Init+0x204>
 8000e4e:	2302      	movs	r3, #2
 8000e50:	e002      	b.n	8000e58 <HAL_GPIO_Init+0x204>
 8000e52:	2301      	movs	r3, #1
 8000e54:	e000      	b.n	8000e58 <HAL_GPIO_Init+0x204>
 8000e56:	2300      	movs	r3, #0
 8000e58:	69fa      	ldr	r2, [r7, #28]
 8000e5a:	f002 0203 	and.w	r2, r2, #3
 8000e5e:	0092      	lsls	r2, r2, #2
 8000e60:	4093      	lsls	r3, r2
 8000e62:	69ba      	ldr	r2, [r7, #24]
 8000e64:	4313      	orrs	r3, r2
 8000e66:	61bb      	str	r3, [r7, #24]
        SYSCFG->EXTICR[position >> 2U] = temp;
 8000e68:	4935      	ldr	r1, [pc, #212]	@ (8000f40 <HAL_GPIO_Init+0x2ec>)
 8000e6a:	69fb      	ldr	r3, [r7, #28]
 8000e6c:	089b      	lsrs	r3, r3, #2
 8000e6e:	3302      	adds	r3, #2
 8000e70:	69ba      	ldr	r2, [r7, #24]
 8000e72:	f841 2023 	str.w	r2, [r1, r3, lsl #2]

        /* Clear Rising Falling edge configuration */
        temp = EXTI->RTSR;
 8000e76:	4b38      	ldr	r3, [pc, #224]	@ (8000f58 <HAL_GPIO_Init+0x304>)
 8000e78:	689b      	ldr	r3, [r3, #8]
 8000e7a:	61bb      	str	r3, [r7, #24]
        temp &= ~((uint32_t)iocurrent);
 8000e7c:	693b      	ldr	r3, [r7, #16]
 8000e7e:	43db      	mvns	r3, r3
 8000e80:	69ba      	ldr	r2, [r7, #24]
 8000e82:	4013      	ands	r3, r2
 8000e84:	61bb      	str	r3, [r7, #24]
        if((GPIO_Init->Mode & TRIGGER_RISING) != 0x00U)
 8000e86:	683b      	ldr	r3, [r7, #0]
 8000e88:	685b      	ldr	r3, [r3, #4]
 8000e8a:	f403 1380 	and.w	r3, r3, #1048576	@ 0x100000
 8000e8e:	2b00      	cmp	r3, #0
 8000e90:	d003      	beq.n	8000e9a <HAL_GPIO_Init+0x246>
        {
          temp |= iocurrent;
 8000e92:	69ba      	ldr	r2, [r7, #24]
 8000e94:	693b      	ldr	r3, [r7, #16]
 8000e96:	4313      	orrs	r3, r2
 8000e98:	61bb      	str	r3, [r7, #24]
        }
        EXTI->RTSR = temp;
 8000e9a:	4a2f      	ldr	r2, [pc, #188]	@ (8000f58 <HAL_GPIO_Init+0x304>)
 8000e9c:	69bb      	ldr	r3, [r7, #24]
 8000e9e:	6093      	str	r3, [r2, #8]

        temp = EXTI->FTSR;
 8000ea0:	4b2d      	ldr	r3, [pc, #180]	@ (8000f58 <HAL_GPIO_Init+0x304>)
 8000ea2:	68db      	ldr	r3, [r3, #12]
 8000ea4:	61bb      	str	r3, [r7, #24]
        temp &= ~((uint32_t)iocurrent);
 8000ea6:	693b      	ldr	r3, [r7, #16]
 8000ea8:	43db      	mvns	r3, r3
 8000eaa:	69ba      	ldr	r2, [r7, #24]
 8000eac:	4013      	ands	r3, r2
 8000eae:	61bb      	str	r3, [r7, #24]
        if((GPIO_Init->Mode & TRIGGER_FALLING) != 0x00U)
 8000eb0:	683b      	ldr	r3, [r7, #0]
 8000eb2:	685b      	ldr	r3, [r3, #4]
 8000eb4:	f403 1300 	and.w	r3, r3, #2097152	@ 0x200000
 8000eb8:	2b00      	cmp	r3, #0
 8000eba:	d003      	beq.n	8000ec4 <HAL_GPIO_Init+0x270>
        {
          temp |= iocurrent;
 8000ebc:	69ba      	ldr	r2, [r7, #24]
 8000ebe:	693b      	ldr	r3, [r7, #16]
 8000ec0:	4313      	orrs	r3, r2
 8000ec2:	61bb      	str	r3, [r7, #24]
        }
        EXTI->FTSR = temp;
 8000ec4:	4a24      	ldr	r2, [pc, #144]	@ (8000f58 <HAL_GPIO_Init+0x304>)
 8000ec6:	69bb      	ldr	r3, [r7, #24]
 8000ec8:	60d3      	str	r3, [r2, #12]

        temp = EXTI->EMR;
 8000eca:	4b23      	ldr	r3, [pc, #140]	@ (8000f58 <HAL_GPIO_Init+0x304>)
 8000ecc:	685b      	ldr	r3, [r3, #4]
 8000ece:	61bb      	str	r3, [r7, #24]
        temp &= ~((uint32_t)iocurrent);
 8000ed0:	693b      	ldr	r3, [r7, #16]
 8000ed2:	43db      	mvns	r3, r3
 8000ed4:	69ba      	ldr	r2, [r7, #24]
 8000ed6:	4013      	ands	r3, r2
 8000ed8:	61bb      	str	r3, [r7, #24]
        if((GPIO_Init->Mode & EXTI_EVT) != 0x00U)
 8000eda:	683b      	ldr	r3, [r7, #0]
 8000edc:	685b      	ldr	r3, [r3, #4]
 8000ede:	f403 3300 	and.w	r3, r3, #131072	@ 0x20000
 8000ee2:	2b00      	cmp	r3, #0
 8000ee4:	d003      	beq.n	8000eee <HAL_GPIO_Init+0x29a>
        {
          temp |= iocurrent;
 8000ee6:	69ba      	ldr	r2, [r7, #24]
 8000ee8:	693b      	ldr	r3, [r7, #16]
 8000eea:	4313      	orrs	r3, r2
 8000eec:	61bb      	str	r3, [r7, #24]
        }
        EXTI->EMR = temp;
 8000eee:	4a1a      	ldr	r2, [pc, #104]	@ (8000f58 <HAL_GPIO_Init+0x304>)
 8000ef0:	69bb      	ldr	r3, [r7, #24]
 8000ef2:	6053      	str	r3, [r2, #4]

        /* Clear EXTI line configuration */
        temp = EXTI->IMR;
 8000ef4:	4b18      	ldr	r3, [pc, #96]	@ (8000f58 <HAL_GPIO_Init+0x304>)
 8000ef6:	681b      	ldr	r3, [r3, #0]
 8000ef8:	61bb      	str	r3, [r7, #24]
        temp &= ~((uint32_t)iocurrent);
 8000efa:	693b      	ldr	r3, [r7, #16]
 8000efc:	43db      	mvns	r3, r3
 8000efe:	69ba      	ldr	r2, [r7, #24]
 8000f00:	4013      	ands	r3, r2
 8000f02:	61bb      	str	r3, [r7, #24]
        if((GPIO_Init->Mode & EXTI_IT) != 0x00U)
 8000f04:	683b      	ldr	r3, [r7, #0]
 8000f06:	685b      	ldr	r3, [r3, #4]
 8000f08:	f403 3380 	and.w	r3, r3, #65536	@ 0x10000
 8000f0c:	2b00      	cmp	r3, #0
 8000f0e:	d003      	beq.n	8000f18 <HAL_GPIO_Init+0x2c4>
        {
          temp |= iocurrent;
 8000f10:	69ba      	ldr	r2, [r7, #24]
 8000f12:	693b      	ldr	r3, [r7, #16]
 8000f14:	4313      	orrs	r3, r2
 8000f16:	61bb      	str	r3, [r7, #24]
        }
        EXTI->IMR = temp;
 8000f18:	4a0f      	ldr	r2, [pc, #60]	@ (8000f58 <HAL_GPIO_Init+0x304>)
 8000f1a:	69bb      	ldr	r3, [r7, #24]
 8000f1c:	6013      	str	r3, [r2, #0]
  for(position = 0U; position < GPIO_NUMBER; position++)
 8000f1e:	69fb      	ldr	r3, [r7, #28]
 8000f20:	3301      	adds	r3, #1
 8000f22:	61fb      	str	r3, [r7, #28]
 8000f24:	69fb      	ldr	r3, [r7, #28]
 8000f26:	2b0f      	cmp	r3, #15
 8000f28:	f67f aea2 	bls.w	8000c70 <HAL_GPIO_Init+0x1c>
      }
    }
  }
}
 8000f2c:	bf00      	nop
 8000f2e:	bf00      	nop
 8000f30:	3724      	adds	r7, #36	@ 0x24
 8000f32:	46bd      	mov	sp, r7
 8000f34:	f85d 7b04 	ldr.w	r7, [sp], #4
 8000f38:	4770      	bx	lr
 8000f3a:	bf00      	nop
 8000f3c:	40023800 	.word	0x40023800
 8000f40:	40013800 	.word	0x40013800
 8000f44:	40020000 	.word	0x40020000
 8000f48:	40020400 	.word	0x40020400
 8000f4c:	40020800 	.word	0x40020800
 8000f50:	40020c00 	.word	0x40020c00
 8000f54:	40021000 	.word	0x40021000
 8000f58:	40013c00 	.word	0x40013c00

08000f5c <HAL_GPIO_WritePin>:
  *            @arg GPIO_PIN_RESET: to clear the port pin
  *            @arg GPIO_PIN_SET: to set the port pin
  * @retval None
  */
void HAL_GPIO_WritePin(GPIO_TypeDef* GPIOx, uint16_t GPIO_Pin, GPIO_PinState PinState)
{
 8000f5c:	b480      	push	{r7}
 8000f5e:	b083      	sub	sp, #12
 8000f60:	af00      	add	r7, sp, #0
 8000f62:	6078      	str	r0, [r7, #4]
 8000f64:	460b      	mov	r3, r1
 8000f66:	807b      	strh	r3, [r7, #2]
 8000f68:	4613      	mov	r3, r2
 8000f6a:	707b      	strb	r3, [r7, #1]
  /* Check the parameters */
  assert_param(IS_GPIO_PIN(GPIO_Pin));
  assert_param(IS_GPIO_PIN_ACTION(PinState));

  if(PinState != GPIO_PIN_RESET)
 8000f6c:	787b      	ldrb	r3, [r7, #1]
 8000f6e:	2b00      	cmp	r3, #0
 8000f70:	d003      	beq.n	8000f7a <HAL_GPIO_WritePin+0x1e>
  {
    GPIOx->BSRR = GPIO_Pin;
 8000f72:	887a      	ldrh	r2, [r7, #2]
 8000f74:	687b      	ldr	r3, [r7, #4]
 8000f76:	619a      	str	r2, [r3, #24]
  }
  else
  {
    GPIOx->BSRR = (uint32_t)GPIO_Pin << 16U;
  }
}
 8000f78:	e003      	b.n	8000f82 <HAL_GPIO_WritePin+0x26>
    GPIOx->BSRR = (uint32_t)GPIO_Pin << 16U;
 8000f7a:	887b      	ldrh	r3, [r7, #2]
 8000f7c:	041a      	lsls	r2, r3, #16
 8000f7e:	687b      	ldr	r3, [r7, #4]
 8000f80:	619a      	str	r2, [r3, #24]
}
 8000f82:	bf00      	nop
 8000f84:	370c      	adds	r7, #12
 8000f86:	46bd      	mov	sp, r7
 8000f88:	f85d 7b04 	ldr.w	r7, [sp], #4
 8000f8c:	4770      	bx	lr
	...

08000f90 <HAL_RCC_OscConfig>:
  *         supported by this API. User should request a transition to HSE Off
  *         first and then HSE On or HSE Bypass.
  * @retval HAL status
  */
__weak HAL_StatusTypeDef HAL_RCC_OscConfig(const RCC_OscInitTypeDef  *RCC_OscInitStruct)
{
 8000f90:	b580      	push	{r7, lr}
 8000f92:	b086      	sub	sp, #24
 8000f94:	af00      	add	r7, sp, #0
 8000f96:	6078      	str	r0, [r7, #4]
  uint32_t tickstart;
  uint32_t pll_config;
  /* Check Null pointer */
  if (RCC_OscInitStruct == NULL)
 8000f98:	687b      	ldr	r3, [r7, #4]
 8000f9a:	2b00      	cmp	r3, #0
 8000f9c:	d101      	bne.n	8000fa2 <HAL_RCC_OscConfig+0x12>
  {
    return HAL_ERROR;
 8000f9e:	2301      	movs	r3, #1
 8000fa0:	e267      	b.n	8001472 <HAL_RCC_OscConfig+0x4e2>
  }

  /* Check the parameters */
  assert_param(IS_RCC_OSCILLATORTYPE(RCC_OscInitStruct->OscillatorType));
  /*------------------------------- HSE Configuration ------------------------*/
  if (((RCC_OscInitStruct->OscillatorType) & RCC_OSCILLATORTYPE_HSE) == RCC_OSCILLATORTYPE_HSE)
 8000fa2:	687b      	ldr	r3, [r7, #4]
 8000fa4:	681b      	ldr	r3, [r3, #0]
 8000fa6:	f003 0301 	and.w	r3, r3, #1
 8000faa:	2b00      	cmp	r3, #0
 8000fac:	d075      	beq.n	800109a <HAL_RCC_OscConfig+0x10a>
  {
    /* Check the parameters */
    assert_param(IS_RCC_HSE(RCC_OscInitStruct->HSEState));
    /* When the HSE is used as system clock or clock source for PLL in these cases HSE will not disabled */
    if ((__HAL_RCC_GET_SYSCLK_SOURCE() == RCC_CFGR_SWS_HSE) || \
 8000fae:	4b88      	ldr	r3, [pc, #544]	@ (80011d0 <HAL_RCC_OscConfig+0x240>)
 8000fb0:	689b      	ldr	r3, [r3, #8]
 8000fb2:	f003 030c 	and.w	r3, r3, #12
 8000fb6:	2b04      	cmp	r3, #4
 8000fb8:	d00c      	beq.n	8000fd4 <HAL_RCC_OscConfig+0x44>
        ((__HAL_RCC_GET_SYSCLK_SOURCE() == RCC_CFGR_SWS_PLL) && ((RCC->PLLCFGR & RCC_PLLCFGR_PLLSRC) == RCC_PLLCFGR_PLLSRC_HSE)))
 8000fba:	4b85      	ldr	r3, [pc, #532]	@ (80011d0 <HAL_RCC_OscConfig+0x240>)
 8000fbc:	689b      	ldr	r3, [r3, #8]
 8000fbe:	f003 030c 	and.w	r3, r3, #12
    if ((__HAL_RCC_GET_SYSCLK_SOURCE() == RCC_CFGR_SWS_HSE) || \
 8000fc2:	2b08      	cmp	r3, #8
 8000fc4:	d112      	bne.n	8000fec <HAL_RCC_OscConfig+0x5c>
        ((__HAL_RCC_GET_SYSCLK_SOURCE() == RCC_CFGR_SWS_PLL) && ((RCC->PLLCFGR & RCC_PLLCFGR_PLLSRC) == RCC_PLLCFGR_PLLSRC_HSE)))
 8000fc6:	4b82      	ldr	r3, [pc, #520]	@ (80011d0 <HAL_RCC_OscConfig+0x240>)
 8000fc8:	685b      	ldr	r3, [r3, #4]
 8000fca:	f403 0380 	and.w	r3, r3, #4194304	@ 0x400000
 8000fce:	f5b3 0f80 	cmp.w	r3, #4194304	@ 0x400000
 8000fd2:	d10b      	bne.n	8000fec <HAL_RCC_OscConfig+0x5c>
    {
      if ((__HAL_RCC_GET_FLAG(RCC_FLAG_HSERDY) != RESET) && (RCC_OscInitStruct->HSEState == RCC_HSE_OFF))
 8000fd4:	4b7e      	ldr	r3, [pc, #504]	@ (80011d0 <HAL_RCC_OscConfig+0x240>)
 8000fd6:	681b      	ldr	r3, [r3, #0]
 8000fd8:	f403 3300 	and.w	r3, r3, #131072	@ 0x20000
 8000fdc:	2b00      	cmp	r3, #0
 8000fde:	d05b      	beq.n	8001098 <HAL_RCC_OscConfig+0x108>
 8000fe0:	687b      	ldr	r3, [r7, #4]
 8000fe2:	685b      	ldr	r3, [r3, #4]
 8000fe4:	2b00      	cmp	r3, #0
 8000fe6:	d157      	bne.n	8001098 <HAL_RCC_OscConfig+0x108>
      {
        return HAL_ERROR;
 8000fe8:	2301      	movs	r3, #1
 8000fea:	e242      	b.n	8001472 <HAL_RCC_OscConfig+0x4e2>
      }
    }
    else
    {
      /* Set the new HSE configuration ---------------------------------------*/
      __HAL_RCC_HSE_CONFIG(RCC_OscInitStruct->HSEState);
 8000fec:	687b      	ldr	r3, [r7, #4]
 8000fee:	685b      	ldr	r3, [r3, #4]
 8000ff0:	f5b3 3f80 	cmp.w	r3, #65536	@ 0x10000
 8000ff4:	d106      	bne.n	8001004 <HAL_RCC_OscConfig+0x74>
 8000ff6:	4b76      	ldr	r3, [pc, #472]	@ (80011d0 <HAL_RCC_OscConfig+0x240>)
 8000ff8:	681b      	ldr	r3, [r3, #0]
 8000ffa:	4a75      	ldr	r2, [pc, #468]	@ (80011d0 <HAL_RCC_OscConfig+0x240>)
 8000ffc:	f443 3380 	orr.w	r3, r3, #65536	@ 0x10000
 8001000:	6013      	str	r3, [r2, #0]
 8001002:	e01d      	b.n	8001040 <HAL_RCC_OscConfig+0xb0>
 8001004:	687b      	ldr	r3, [r7, #4]
 8001006:	685b      	ldr	r3, [r3, #4]
 8001008:	f5b3 2fa0 	cmp.w	r3, #327680	@ 0x50000
 800100c:	d10c      	bne.n	8001028 <HAL_RCC_OscConfig+0x98>
 800100e:	4b70      	ldr	r3, [pc, #448]	@ (80011d0 <HAL_RCC_OscConfig+0x240>)
 8001010:	681b      	ldr	r3, [r3, #0]
 8001012:	4a6f      	ldr	r2, [pc, #444]	@ (80011d0 <HAL_RCC_OscConfig+0x240>)
 8001014:	f443 2380 	orr.w	r3, r3, #262144	@ 0x40000
 8001018:	6013      	str	r3, [r2, #0]
 800101a:	4b6d      	ldr	r3, [pc, #436]	@ (80011d0 <HAL_RCC_OscConfig+0x240>)
 800101c:	681b      	ldr	r3, [r3, #0]
 800101e:	4a6c      	ldr	r2, [pc, #432]	@ (80011d0 <HAL_RCC_OscConfig+0x240>)
 8001020:	f443 3380 	orr.w	r3, r3, #65536	@ 0x10000
 8001024:	6013      	str	r3, [r2, #0]
 8001026:	e00b      	b.n	8001040 <HAL_RCC_OscConfig+0xb0>
 8001028:	4b69      	ldr	r3, [pc, #420]	@ (80011d0 <HAL_RCC_OscConfig+0x240>)
 800102a:	681b      	ldr	r3, [r3, #0]
 800102c:	4a68      	ldr	r2, [pc, #416]	@ (80011d0 <HAL_RCC_OscConfig+0x240>)
 800102e:	f423 3380 	bic.w	r3, r3, #65536	@ 0x10000
 8001032:	6013      	str	r3, [r2, #0]
 8001034:	4b66      	ldr	r3, [pc, #408]	@ (80011d0 <HAL_RCC_OscConfig+0x240>)
 8001036:	681b      	ldr	r3, [r3, #0]
 8001038:	4a65      	ldr	r2, [pc, #404]	@ (80011d0 <HAL_RCC_OscConfig+0x240>)
 800103a:	f423 2380 	bic.w	r3, r3, #262144	@ 0x40000
 800103e:	6013      	str	r3, [r2, #0]

      /* Check the HSE State */
      if ((RCC_OscInitStruct->HSEState) != RCC_HSE_OFF)
 8001040:	687b      	ldr	r3, [r7, #4]
 8001042:	685b      	ldr	r3, [r3, #4]
 8001044:	2b00      	cmp	r3, #0
 8001046:	d013      	beq.n	8001070 <HAL_RCC_OscConfig+0xe0>
      {
        /* Get Start Tick */
        tickstart = HAL_GetTick();
 8001048:	f7ff fd12 	bl	8000a70 <HAL_GetTick>
 800104c:	6138      	str	r0, [r7, #16]

        /* Wait till HSE is ready */
        while (__HAL_RCC_GET_FLAG(RCC_FLAG_HSERDY) == RESET)
 800104e:	e008      	b.n	8001062 <HAL_RCC_OscConfig+0xd2>
        {
          if ((HAL_GetTick() - tickstart) > HSE_TIMEOUT_VALUE)
 8001050:	f7ff fd0e 	bl	8000a70 <HAL_GetTick>
 8001054:	4602      	mov	r2, r0
 8001056:	693b      	ldr	r3, [r7, #16]
 8001058:	1ad3      	subs	r3, r2, r3
 800105a:	2b64      	cmp	r3, #100	@ 0x64
 800105c:	d901      	bls.n	8001062 <HAL_RCC_OscConfig+0xd2>
          {
            return HAL_TIMEOUT;
 800105e:	2303      	movs	r3, #3
 8001060:	e207      	b.n	8001472 <HAL_RCC_OscConfig+0x4e2>
        while (__HAL_RCC_GET_FLAG(RCC_FLAG_HSERDY) == RESET)
 8001062:	4b5b      	ldr	r3, [pc, #364]	@ (80011d0 <HAL_RCC_OscConfig+0x240>)
 8001064:	681b      	ldr	r3, [r3, #0]
 8001066:	f403 3300 	and.w	r3, r3, #131072	@ 0x20000
 800106a:	2b00      	cmp	r3, #0
 800106c:	d0f0      	beq.n	8001050 <HAL_RCC_OscConfig+0xc0>
 800106e:	e014      	b.n	800109a <HAL_RCC_OscConfig+0x10a>
        }
      }
      else
      {
        /* Get Start Tick */
        tickstart = HAL_GetTick();
 8001070:	f7ff fcfe 	bl	8000a70 <HAL_GetTick>
 8001074:	6138      	str	r0, [r7, #16]

        /* Wait till HSE is bypassed or disabled */
        while (__HAL_RCC_GET_FLAG(RCC_FLAG_HSERDY) != RESET)
 8001076:	e008      	b.n	800108a <HAL_RCC_OscConfig+0xfa>
        {
          if ((HAL_GetTick() - tickstart) > HSE_TIMEOUT_VALUE)
 8001078:	f7ff fcfa 	bl	8000a70 <HAL_GetTick>
 800107c:	4602      	mov	r2, r0
 800107e:	693b      	ldr	r3, [r7, #16]
 8001080:	1ad3      	subs	r3, r2, r3
 8001082:	2b64      	cmp	r3, #100	@ 0x64
 8001084:	d901      	bls.n	800108a <HAL_RCC_OscConfig+0xfa>
          {
            return HAL_TIMEOUT;
 8001086:	2303      	movs	r3, #3
 8001088:	e1f3      	b.n	8001472 <HAL_RCC_OscConfig+0x4e2>
        while (__HAL_RCC_GET_FLAG(RCC_FLAG_HSERDY) != RESET)
 800108a:	4b51      	ldr	r3, [pc, #324]	@ (80011d0 <HAL_RCC_OscConfig+0x240>)
 800108c:	681b      	ldr	r3, [r3, #0]
 800108e:	f403 3300 	and.w	r3, r3, #131072	@ 0x20000
 8001092:	2b00      	cmp	r3, #0
 8001094:	d1f0      	bne.n	8001078 <HAL_RCC_OscConfig+0xe8>
 8001096:	e000      	b.n	800109a <HAL_RCC_OscConfig+0x10a>
      if ((__HAL_RCC_GET_FLAG(RCC_FLAG_HSERDY) != RESET) && (RCC_OscInitStruct->HSEState == RCC_HSE_OFF))
 8001098:	bf00      	nop
        }
      }
    }
  }
  /*----------------------------- HSI Configuration --------------------------*/
  if (((RCC_OscInitStruct->OscillatorType) & RCC_OSCILLATORTYPE_HSI) == RCC_OSCILLATORTYPE_HSI)
 800109a:	687b      	ldr	r3, [r7, #4]
 800109c:	681b      	ldr	r3, [r3, #0]
 800109e:	f003 0302 	and.w	r3, r3, #2
 80010a2:	2b00      	cmp	r3, #0
 80010a4:	d063      	beq.n	800116e <HAL_RCC_OscConfig+0x1de>
    /* Check the parameters */
    assert_param(IS_RCC_HSI(RCC_OscInitStruct->HSIState));
    assert_param(IS_RCC_CALIBRATION_VALUE(RCC_OscInitStruct->HSICalibrationValue));

    /* Check if HSI is used as system clock or as PLL source when PLL is selected as system clock */
    if ((__HAL_RCC_GET_SYSCLK_SOURCE() == RCC_CFGR_SWS_HSI) || \
 80010a6:	4b4a      	ldr	r3, [pc, #296]	@ (80011d0 <HAL_RCC_OscConfig+0x240>)
 80010a8:	689b      	ldr	r3, [r3, #8]
 80010aa:	f003 030c 	and.w	r3, r3, #12
 80010ae:	2b00      	cmp	r3, #0
 80010b0:	d00b      	beq.n	80010ca <HAL_RCC_OscConfig+0x13a>
        ((__HAL_RCC_GET_SYSCLK_SOURCE() == RCC_CFGR_SWS_PLL) && ((RCC->PLLCFGR & RCC_PLLCFGR_PLLSRC) == RCC_PLLCFGR_PLLSRC_HSI)))
 80010b2:	4b47      	ldr	r3, [pc, #284]	@ (80011d0 <HAL_RCC_OscConfig+0x240>)
 80010b4:	689b      	ldr	r3, [r3, #8]
 80010b6:	f003 030c 	and.w	r3, r3, #12
    if ((__HAL_RCC_GET_SYSCLK_SOURCE() == RCC_CFGR_SWS_HSI) || \
 80010ba:	2b08      	cmp	r3, #8
 80010bc:	d11c      	bne.n	80010f8 <HAL_RCC_OscConfig+0x168>
        ((__HAL_RCC_GET_SYSCLK_SOURCE() == RCC_CFGR_SWS_PLL) && ((RCC->PLLCFGR & RCC_PLLCFGR_PLLSRC) == RCC_PLLCFGR_PLLSRC_HSI)))
 80010be:	4b44      	ldr	r3, [pc, #272]	@ (80011d0 <HAL_RCC_OscConfig+0x240>)
 80010c0:	685b      	ldr	r3, [r3, #4]
 80010c2:	f403 0380 	and.w	r3, r3, #4194304	@ 0x400000
 80010c6:	2b00      	cmp	r3, #0
 80010c8:	d116      	bne.n	80010f8 <HAL_RCC_OscConfig+0x168>
    {
      /* When HSI is used as system clock it will not disabled */
      if ((__HAL_RCC_GET_FLAG(RCC_FLAG_HSIRDY) != RESET) && (RCC_OscInitStruct->HSIState != RCC_HSI_ON))
 80010ca:	4b41      	ldr	r3, [pc, #260]	@ (80011d0 <HAL_RCC_OscConfig+0x240>)
 80010cc:	681b      	ldr	r3, [r3, #0]
 80010ce:	f003 0302 	and.w	r3, r3, #2
 80010d2:	2b00      	cmp	r3, #0
 80010d4:	d005      	beq.n	80010e2 <HAL_RCC_OscConfig+0x152>
 80010d6:	687b      	ldr	r3, [r7, #4]
 80010d8:	68db      	ldr	r3, [r3, #12]
 80010da:	2b01      	cmp	r3, #1
 80010dc:	d001      	beq.n	80010e2 <HAL_RCC_OscConfig+0x152>
      {
        return HAL_ERROR;
 80010de:	2301      	movs	r3, #1
 80010e0:	e1c7      	b.n	8001472 <HAL_RCC_OscConfig+0x4e2>
      }
      /* Otherwise, just the calibration is allowed */
      else
      {
        /* Adjusts the Internal High Speed oscillator (HSI) calibration value.*/
        __HAL_RCC_HSI_CALIBRATIONVALUE_ADJUST(RCC_OscInitStruct->HSICalibrationValue);
 80010e2:	4b3b      	ldr	r3, [pc, #236]	@ (80011d0 <HAL_RCC_OscConfig+0x240>)
 80010e4:	681b      	ldr	r3, [r3, #0]
 80010e6:	f023 02f8 	bic.w	r2, r3, #248	@ 0xf8
 80010ea:	687b      	ldr	r3, [r7, #4]
 80010ec:	691b      	ldr	r3, [r3, #16]
 80010ee:	00db      	lsls	r3, r3, #3
 80010f0:	4937      	ldr	r1, [pc, #220]	@ (80011d0 <HAL_RCC_OscConfig+0x240>)
 80010f2:	4313      	orrs	r3, r2
 80010f4:	600b      	str	r3, [r1, #0]
      if ((__HAL_RCC_GET_FLAG(RCC_FLAG_HSIRDY) != RESET) && (RCC_OscInitStruct->HSIState != RCC_HSI_ON))
 80010f6:	e03a      	b.n	800116e <HAL_RCC_OscConfig+0x1de>
      }
    }
    else
    {
      /* Check the HSI State */
      if ((RCC_OscInitStruct->HSIState) != RCC_HSI_OFF)
 80010f8:	687b      	ldr	r3, [r7, #4]
 80010fa:	68db      	ldr	r3, [r3, #12]
 80010fc:	2b00      	cmp	r3, #0
 80010fe:	d020      	beq.n	8001142 <HAL_RCC_OscConfig+0x1b2>
      {
        /* Enable the Internal High Speed oscillator (HSI). */
        __HAL_RCC_HSI_ENABLE();
 8001100:	4b34      	ldr	r3, [pc, #208]	@ (80011d4 <HAL_RCC_OscConfig+0x244>)
 8001102:	2201      	movs	r2, #1
 8001104:	601a      	str	r2, [r3, #0]

        /* Get Start Tick*/
        tickstart = HAL_GetTick();
 8001106:	f7ff fcb3 	bl	8000a70 <HAL_GetTick>
 800110a:	6138      	str	r0, [r7, #16]

        /* Wait till HSI is ready */
        while (__HAL_RCC_GET_FLAG(RCC_FLAG_HSIRDY) == RESET)
 800110c:	e008      	b.n	8001120 <HAL_RCC_OscConfig+0x190>
        {
          if ((HAL_GetTick() - tickstart) > HSI_TIMEOUT_VALUE)
 800110e:	f7ff fcaf 	bl	8000a70 <HAL_GetTick>
 8001112:	4602      	mov	r2, r0
 8001114:	693b      	ldr	r3, [r7, #16]
 8001116:	1ad3      	subs	r3, r2, r3
 8001118:	2b02      	cmp	r3, #2
 800111a:	d901      	bls.n	8001120 <HAL_RCC_OscConfig+0x190>
          {
            return HAL_TIMEOUT;
 800111c:	2303      	movs	r3, #3
 800111e:	e1a8      	b.n	8001472 <HAL_RCC_OscConfig+0x4e2>
        while (__HAL_RCC_GET_FLAG(RCC_FLAG_HSIRDY) == RESET)
 8001120:	4b2b      	ldr	r3, [pc, #172]	@ (80011d0 <HAL_RCC_OscConfig+0x240>)
 8001122:	681b      	ldr	r3, [r3, #0]
 8001124:	f003 0302 	and.w	r3, r3, #2
 8001128:	2b00      	cmp	r3, #0
 800112a:	d0f0      	beq.n	800110e <HAL_RCC_OscConfig+0x17e>
          }
        }

        /* Adjusts the Internal High Speed oscillator (HSI) calibration value. */
        __HAL_RCC_HSI_CALIBRATIONVALUE_ADJUST(RCC_OscInitStruct->HSICalibrationValue);
 800112c:	4b28      	ldr	r3, [pc, #160]	@ (80011d0 <HAL_RCC_OscConfig+0x240>)
 800112e:	681b      	ldr	r3, [r3, #0]
 8001130:	f023 02f8 	bic.w	r2, r3, #248	@ 0xf8
 8001134:	687b      	ldr	r3, [r7, #4]
 8001136:	691b      	ldr	r3, [r3, #16]
 8001138:	00db      	lsls	r3, r3, #3
 800113a:	4925      	ldr	r1, [pc, #148]	@ (80011d0 <HAL_RCC_OscConfig+0x240>)
 800113c:	4313      	orrs	r3, r2
 800113e:	600b      	str	r3, [r1, #0]
 8001140:	e015      	b.n	800116e <HAL_RCC_OscConfig+0x1de>
      }
      else
      {
        /* Disable the Internal High Speed oscillator (HSI). */
        __HAL_RCC_HSI_DISABLE();
 8001142:	4b24      	ldr	r3, [pc, #144]	@ (80011d4 <HAL_RCC_OscConfig+0x244>)
 8001144:	2200      	movs	r2, #0
 8001146:	601a      	str	r2, [r3, #0]

        /* Get Start Tick*/
        tickstart = HAL_GetTick();
 8001148:	f7ff fc92 	bl	8000a70 <HAL_GetTick>
 800114c:	6138      	str	r0, [r7, #16]

        /* Wait till HSI is ready */
        while (__HAL_RCC_GET_FLAG(RCC_FLAG_HSIRDY) != RESET)
 800114e:	e008      	b.n	8001162 <HAL_RCC_OscConfig+0x1d2>
        {
          if ((HAL_GetTick() - tickstart) > HSI_TIMEOUT_VALUE)
 8001150:	f7ff fc8e 	bl	8000a70 <HAL_GetTick>
 8001154:	4602      	mov	r2, r0
 8001156:	693b      	ldr	r3, [r7, #16]
 8001158:	1ad3      	subs	r3, r2, r3
 800115a:	2b02      	cmp	r3, #2
 800115c:	d901      	bls.n	8001162 <HAL_RCC_OscConfig+0x1d2>
          {
            return HAL_TIMEOUT;
 800115e:	2303      	movs	r3, #3
 8001160:	e187      	b.n	8001472 <HAL_RCC_OscConfig+0x4e2>
        while (__HAL_RCC_GET_FLAG(RCC_FLAG_HSIRDY) != RESET)
 8001162:	4b1b      	ldr	r3, [pc, #108]	@ (80011d0 <HAL_RCC_OscConfig+0x240>)
 8001164:	681b      	ldr	r3, [r3, #0]
 8001166:	f003 0302 	and.w	r3, r3, #2
 800116a:	2b00      	cmp	r3, #0
 800116c:	d1f0      	bne.n	8001150 <HAL_RCC_OscConfig+0x1c0>
        }
      }
    }
  }
  /*------------------------------ LSI Configuration -------------------------*/
  if (((RCC_OscInitStruct->OscillatorType) & RCC_OSCILLATORTYPE_LSI) == RCC_OSCILLATORTYPE_LSI)
 800116e:	687b      	ldr	r3, [r7, #4]
 8001170:	681b      	ldr	r3, [r3, #0]
 8001172:	f003 0308 	and.w	r3, r3, #8
 8001176:	2b00      	cmp	r3, #0
 8001178:	d036      	beq.n	80011e8 <HAL_RCC_OscConfig+0x258>
  {
    /* Check the parameters */
    assert_param(IS_RCC_LSI(RCC_OscInitStruct->LSIState));

    /* Check the LSI State */
    if ((RCC_OscInitStruct->LSIState) != RCC_LSI_OFF)
 800117a:	687b      	ldr	r3, [r7, #4]
 800117c:	695b      	ldr	r3, [r3, #20]
 800117e:	2b00      	cmp	r3, #0
 8001180:	d016      	beq.n	80011b0 <HAL_RCC_OscConfig+0x220>
    {
      /* Enable the Internal Low Speed oscillator (LSI). */
      __HAL_RCC_LSI_ENABLE();
 8001182:	4b15      	ldr	r3, [pc, #84]	@ (80011d8 <HAL_RCC_OscConfig+0x248>)
 8001184:	2201      	movs	r2, #1
 8001186:	601a      	str	r2, [r3, #0]

      /* Get Start Tick*/
      tickstart = HAL_GetTick();
 8001188:	f7ff fc72 	bl	8000a70 <HAL_GetTick>
 800118c:	6138      	str	r0, [r7, #16]

      /* Wait till LSI is ready */
      while (__HAL_RCC_GET_FLAG(RCC_FLAG_LSIRDY) == RESET)
 800118e:	e008      	b.n	80011a2 <HAL_RCC_OscConfig+0x212>
      {
        if ((HAL_GetTick() - tickstart) > LSI_TIMEOUT_VALUE)
 8001190:	f7ff fc6e 	bl	8000a70 <HAL_GetTick>
 8001194:	4602      	mov	r2, r0
 8001196:	693b      	ldr	r3, [r7, #16]
 8001198:	1ad3      	subs	r3, r2, r3
 800119a:	2b02      	cmp	r3, #2
 800119c:	d901      	bls.n	80011a2 <HAL_RCC_OscConfig+0x212>
        {
          return HAL_TIMEOUT;
 800119e:	2303      	movs	r3, #3
 80011a0:	e167      	b.n	8001472 <HAL_RCC_OscConfig+0x4e2>
      while (__HAL_RCC_GET_FLAG(RCC_FLAG_LSIRDY) == RESET)
 80011a2:	4b0b      	ldr	r3, [pc, #44]	@ (80011d0 <HAL_RCC_OscConfig+0x240>)
 80011a4:	6f5b      	ldr	r3, [r3, #116]	@ 0x74
 80011a6:	f003 0302 	and.w	r3, r3, #2
 80011aa:	2b00      	cmp	r3, #0
 80011ac:	d0f0      	beq.n	8001190 <HAL_RCC_OscConfig+0x200>
 80011ae:	e01b      	b.n	80011e8 <HAL_RCC_OscConfig+0x258>
      }
    }
    else
    {
      /* Disable the Internal Low Speed oscillator (LSI). */
      __HAL_RCC_LSI_DISABLE();
 80011b0:	4b09      	ldr	r3, [pc, #36]	@ (80011d8 <HAL_RCC_OscConfig+0x248>)
 80011b2:	2200      	movs	r2, #0
 80011b4:	601a      	str	r2, [r3, #0]

      /* Get Start Tick */
      tickstart = HAL_GetTick();
 80011b6:	f7ff fc5b 	bl	8000a70 <HAL_GetTick>
 80011ba:	6138      	str	r0, [r7, #16]

      /* Wait till LSI is ready */
      while (__HAL_RCC_GET_FLAG(RCC_FLAG_LSIRDY) != RESET)
 80011bc:	e00e      	b.n	80011dc <HAL_RCC_OscConfig+0x24c>
      {
        if ((HAL_GetTick() - tickstart) > LSI_TIMEOUT_VALUE)
 80011be:	f7ff fc57 	bl	8000a70 <HAL_GetTick>
 80011c2:	4602      	mov	r2, r0
 80011c4:	693b      	ldr	r3, [r7, #16]
 80011c6:	1ad3      	subs	r3, r2, r3
 80011c8:	2b02      	cmp	r3, #2
 80011ca:	d907      	bls.n	80011dc <HAL_RCC_OscConfig+0x24c>
        {
          return HAL_TIMEOUT;
 80011cc:	2303      	movs	r3, #3
 80011ce:	e150      	b.n	8001472 <HAL_RCC_OscConfig+0x4e2>
 80011d0:	40023800 	.word	0x40023800
 80011d4:	42470000 	.word	0x42470000
 80011d8:	42470e80 	.word	0x42470e80
      while (__HAL_RCC_GET_FLAG(RCC_FLAG_LSIRDY) != RESET)
 80011dc:	4b88      	ldr	r3, [pc, #544]	@ (8001400 <HAL_RCC_OscConfig+0x470>)
 80011de:	6f5b      	ldr	r3, [r3, #116]	@ 0x74
 80011e0:	f003 0302 	and.w	r3, r3, #2
 80011e4:	2b00      	cmp	r3, #0
 80011e6:	d1ea      	bne.n	80011be <HAL_RCC_OscConfig+0x22e>
        }
      }
    }
  }
  /*------------------------------ LSE Configuration -------------------------*/
  if (((RCC_OscInitStruct->OscillatorType) & RCC_OSCILLATORTYPE_LSE) == RCC_OSCILLATORTYPE_LSE)
 80011e8:	687b      	ldr	r3, [r7, #4]
 80011ea:	681b      	ldr	r3, [r3, #0]
 80011ec:	f003 0304 	and.w	r3, r3, #4
 80011f0:	2b00      	cmp	r3, #0
 80011f2:	f000 8097 	beq.w	8001324 <HAL_RCC_OscConfig+0x394>
  {
    FlagStatus       pwrclkchanged = RESET;
 80011f6:	2300      	movs	r3, #0
 80011f8:	75fb      	strb	r3, [r7, #23]
    /* Check the parameters */
    assert_param(IS_RCC_LSE(RCC_OscInitStruct->LSEState));

    /* Update LSE configuration in Backup Domain control register    */
    /* Requires to enable write access to Backup Domain of necessary */
    if (__HAL_RCC_PWR_IS_CLK_DISABLED())
 80011fa:	4b81      	ldr	r3, [pc, #516]	@ (8001400 <HAL_RCC_OscConfig+0x470>)
 80011fc:	6c1b      	ldr	r3, [r3, #64]	@ 0x40
 80011fe:	f003 5380 	and.w	r3, r3, #268435456	@ 0x10000000
 8001202:	2b00      	cmp	r3, #0
 8001204:	d10f      	bne.n	8001226 <HAL_RCC_OscConfig+0x296>
    {
      __HAL_RCC_PWR_CLK_ENABLE();
 8001206:	2300      	movs	r3, #0
 8001208:	60bb      	str	r3, [r7, #8]
 800120a:	4b7d      	ldr	r3, [pc, #500]	@ (8001400 <HAL_RCC_OscConfig+0x470>)
 800120c:	6c1b      	ldr	r3, [r3, #64]	@ 0x40
 800120e:	4a7c      	ldr	r2, [pc, #496]	@ (8001400 <HAL_RCC_OscConfig+0x470>)
 8001210:	f043 5380 	orr.w	r3, r3, #268435456	@ 0x10000000
 8001214:	6413      	str	r3, [r2, #64]	@ 0x40
 8001216:	4b7a      	ldr	r3, [pc, #488]	@ (8001400 <HAL_RCC_OscConfig+0x470>)
 8001218:	6c1b      	ldr	r3, [r3, #64]	@ 0x40
 800121a:	f003 5380 	and.w	r3, r3, #268435456	@ 0x10000000
 800121e:	60bb      	str	r3, [r7, #8]
 8001220:	68bb      	ldr	r3, [r7, #8]
      pwrclkchanged = SET;
 8001222:	2301      	movs	r3, #1
 8001224:	75fb      	strb	r3, [r7, #23]
    }

    if (HAL_IS_BIT_CLR(PWR->CR, PWR_CR_DBP))
 8001226:	4b77      	ldr	r3, [pc, #476]	@ (8001404 <HAL_RCC_OscConfig+0x474>)
 8001228:	681b      	ldr	r3, [r3, #0]
 800122a:	f403 7380 	and.w	r3, r3, #256	@ 0x100
 800122e:	2b00      	cmp	r3, #0
 8001230:	d118      	bne.n	8001264 <HAL_RCC_OscConfig+0x2d4>
    {
      /* Enable write access to Backup domain */
      SET_BIT(PWR->CR, PWR_CR_DBP);
 8001232:	4b74      	ldr	r3, [pc, #464]	@ (8001404 <HAL_RCC_OscConfig+0x474>)
 8001234:	681b      	ldr	r3, [r3, #0]
 8001236:	4a73      	ldr	r2, [pc, #460]	@ (8001404 <HAL_RCC_OscConfig+0x474>)
 8001238:	f443 7380 	orr.w	r3, r3, #256	@ 0x100
 800123c:	6013      	str	r3, [r2, #0]

      /* Wait for Backup domain Write protection disable */
      tickstart = HAL_GetTick();
 800123e:	f7ff fc17 	bl	8000a70 <HAL_GetTick>
 8001242:	6138      	str	r0, [r7, #16]

      while (HAL_IS_BIT_CLR(PWR->CR, PWR_CR_DBP))
 8001244:	e008      	b.n	8001258 <HAL_RCC_OscConfig+0x2c8>
      {
        if ((HAL_GetTick() - tickstart) > RCC_DBP_TIMEOUT_VALUE)
 8001246:	f7ff fc13 	bl	8000a70 <HAL_GetTick>
 800124a:	4602      	mov	r2, r0
 800124c:	693b      	ldr	r3, [r7, #16]
 800124e:	1ad3      	subs	r3, r2, r3
 8001250:	2b02      	cmp	r3, #2
 8001252:	d901      	bls.n	8001258 <HAL_RCC_OscConfig+0x2c8>
        {
          return HAL_TIMEOUT;
 8001254:	2303      	movs	r3, #3
 8001256:	e10c      	b.n	8001472 <HAL_RCC_OscConfig+0x4e2>
      while (HAL_IS_BIT_CLR(PWR->CR, PWR_CR_DBP))
 8001258:	4b6a      	ldr	r3, [pc, #424]	@ (8001404 <HAL_RCC_OscConfig+0x474>)
 800125a:	681b      	ldr	r3, [r3, #0]
 800125c:	f403 7380 	and.w	r3, r3, #256	@ 0x100
 8001260:	2b00      	cmp	r3, #0
 8001262:	d0f0      	beq.n	8001246 <HAL_RCC_OscConfig+0x2b6>
        }
      }
    }

    /* Set the new LSE configuration -----------------------------------------*/
    __HAL_RCC_LSE_CONFIG(RCC_OscInitStruct->LSEState);
 8001264:	687b      	ldr	r3, [r7, #4]
 8001266:	689b      	ldr	r3, [r3, #8]
 8001268:	2b01      	cmp	r3, #1
 800126a:	d106      	bne.n	800127a <HAL_RCC_OscConfig+0x2ea>
 800126c:	4b64      	ldr	r3, [pc, #400]	@ (8001400 <HAL_RCC_OscConfig+0x470>)
 800126e:	6f1b      	ldr	r3, [r3, #112]	@ 0x70
 8001270:	4a63      	ldr	r2, [pc, #396]	@ (8001400 <HAL_RCC_OscConfig+0x470>)
 8001272:	f043 0301 	orr.w	r3, r3, #1
 8001276:	6713      	str	r3, [r2, #112]	@ 0x70
 8001278:	e01c      	b.n	80012b4 <HAL_RCC_OscConfig+0x324>
 800127a:	687b      	ldr	r3, [r7, #4]
 800127c:	689b      	ldr	r3, [r3, #8]
 800127e:	2b05      	cmp	r3, #5
 8001280:	d10c      	bne.n	800129c <HAL_RCC_OscConfig+0x30c>
 8001282:	4b5f      	ldr	r3, [pc, #380]	@ (8001400 <HAL_RCC_OscConfig+0x470>)
 8001284:	6f1b      	ldr	r3, [r3, #112]	@ 0x70
 8001286:	4a5e      	ldr	r2, [pc, #376]	@ (8001400 <HAL_RCC_OscConfig+0x470>)
 8001288:	f043 0304 	orr.w	r3, r3, #4
 800128c:	6713      	str	r3, [r2, #112]	@ 0x70
 800128e:	4b5c      	ldr	r3, [pc, #368]	@ (8001400 <HAL_RCC_OscConfig+0x470>)
 8001290:	6f1b      	ldr	r3, [r3, #112]	@ 0x70
 8001292:	4a5b      	ldr	r2, [pc, #364]	@ (8001400 <HAL_RCC_OscConfig+0x470>)
 8001294:	f043 0301 	orr.w	r3, r3, #1
 8001298:	6713      	str	r3, [r2, #112]	@ 0x70
 800129a:	e00b      	b.n	80012b4 <HAL_RCC_OscConfig+0x324>
 800129c:	4b58      	ldr	r3, [pc, #352]	@ (8001400 <HAL_RCC_OscConfig+0x470>)
 800129e:	6f1b      	ldr	r3, [r3, #112]	@ 0x70
 80012a0:	4a57      	ldr	r2, [pc, #348]	@ (8001400 <HAL_RCC_OscConfig+0x470>)
 80012a2:	f023 0301 	bic.w	r3, r3, #1
 80012a6:	6713      	str	r3, [r2, #112]	@ 0x70
 80012a8:	4b55      	ldr	r3, [pc, #340]	@ (8001400 <HAL_RCC_OscConfig+0x470>)
 80012aa:	6f1b      	ldr	r3, [r3, #112]	@ 0x70
 80012ac:	4a54      	ldr	r2, [pc, #336]	@ (8001400 <HAL_RCC_OscConfig+0x470>)
 80012ae:	f023 0304 	bic.w	r3, r3, #4
 80012b2:	6713      	str	r3, [r2, #112]	@ 0x70
    /* Check the LSE State */
    if ((RCC_OscInitStruct->LSEState) != RCC_LSE_OFF)
 80012b4:	687b      	ldr	r3, [r7, #4]
 80012b6:	689b      	ldr	r3, [r3, #8]
 80012b8:	2b00      	cmp	r3, #0
 80012ba:	d015      	beq.n	80012e8 <HAL_RCC_OscConfig+0x358>
    {
      /* Get Start Tick*/
      tickstart = HAL_GetTick();
 80012bc:	f7ff fbd8 	bl	8000a70 <HAL_GetTick>
 80012c0:	6138      	str	r0, [r7, #16]

      /* Wait till LSE is ready */
      while (__HAL_RCC_GET_FLAG(RCC_FLAG_LSERDY) == RESET)
 80012c2:	e00a      	b.n	80012da <HAL_RCC_OscConfig+0x34a>
      {
        if ((HAL_GetTick() - tickstart) > RCC_LSE_TIMEOUT_VALUE)
 80012c4:	f7ff fbd4 	bl	8000a70 <HAL_GetTick>
 80012c8:	4602      	mov	r2, r0
 80012ca:	693b      	ldr	r3, [r7, #16]
 80012cc:	1ad3      	subs	r3, r2, r3
 80012ce:	f241 3288 	movw	r2, #5000	@ 0x1388
 80012d2:	4293      	cmp	r3, r2
 80012d4:	d901      	bls.n	80012da <HAL_RCC_OscConfig+0x34a>
        {
          return HAL_TIMEOUT;
 80012d6:	2303      	movs	r3, #3
 80012d8:	e0cb      	b.n	8001472 <HAL_RCC_OscConfig+0x4e2>
      while (__HAL_RCC_GET_FLAG(RCC_FLAG_LSERDY) == RESET)
 80012da:	4b49      	ldr	r3, [pc, #292]	@ (8001400 <HAL_RCC_OscConfig+0x470>)
 80012dc:	6f1b      	ldr	r3, [r3, #112]	@ 0x70
 80012de:	f003 0302 	and.w	r3, r3, #2
 80012e2:	2b00      	cmp	r3, #0
 80012e4:	d0ee      	beq.n	80012c4 <HAL_RCC_OscConfig+0x334>
 80012e6:	e014      	b.n	8001312 <HAL_RCC_OscConfig+0x382>
      }
    }
    else
    {
      /* Get Start Tick */
      tickstart = HAL_GetTick();
 80012e8:	f7ff fbc2 	bl	8000a70 <HAL_GetTick>
 80012ec:	6138      	str	r0, [r7, #16]

      /* Wait till LSE is ready */
      while (__HAL_RCC_GET_FLAG(RCC_FLAG_LSERDY) != RESET)
 80012ee:	e00a      	b.n	8001306 <HAL_RCC_OscConfig+0x376>
      {
        if ((HAL_GetTick() - tickstart) > RCC_LSE_TIMEOUT_VALUE)
 80012f0:	f7ff fbbe 	bl	8000a70 <HAL_GetTick>
 80012f4:	4602      	mov	r2, r0
 80012f6:	693b      	ldr	r3, [r7, #16]
 80012f8:	1ad3      	subs	r3, r2, r3
 80012fa:	f241 3288 	movw	r2, #5000	@ 0x1388
 80012fe:	4293      	cmp	r3, r2
 8001300:	d901      	bls.n	8001306 <HAL_RCC_OscConfig+0x376>
        {
          return HAL_TIMEOUT;
 8001302:	2303      	movs	r3, #3
 8001304:	e0b5      	b.n	8001472 <HAL_RCC_OscConfig+0x4e2>
      while (__HAL_RCC_GET_FLAG(RCC_FLAG_LSERDY) != RESET)
 8001306:	4b3e      	ldr	r3, [pc, #248]	@ (8001400 <HAL_RCC_OscConfig+0x470>)
 8001308:	6f1b      	ldr	r3, [r3, #112]	@ 0x70
 800130a:	f003 0302 	and.w	r3, r3, #2
 800130e:	2b00      	cmp	r3, #0
 8001310:	d1ee      	bne.n	80012f0 <HAL_RCC_OscConfig+0x360>
        }
      }
    }

    /* Restore clock configuration if changed */
    if (pwrclkchanged == SET)
 8001312:	7dfb      	ldrb	r3, [r7, #23]
 8001314:	2b01      	cmp	r3, #1
 8001316:	d105      	bne.n	8001324 <HAL_RCC_OscConfig+0x394>
    {
      __HAL_RCC_PWR_CLK_DISABLE();
 8001318:	4b39      	ldr	r3, [pc, #228]	@ (8001400 <HAL_RCC_OscConfig+0x470>)
 800131a:	6c1b      	ldr	r3, [r3, #64]	@ 0x40
 800131c:	4a38      	ldr	r2, [pc, #224]	@ (8001400 <HAL_RCC_OscConfig+0x470>)
 800131e:	f023 5380 	bic.w	r3, r3, #268435456	@ 0x10000000
 8001322:	6413      	str	r3, [r2, #64]	@ 0x40
    }
  }
  /*-------------------------------- PLL Configuration -----------------------*/
  /* Check the parameters */
  assert_param(IS_RCC_PLL(RCC_OscInitStruct->PLL.PLLState));
  if ((RCC_OscInitStruct->PLL.PLLState) != RCC_PLL_NONE)
 8001324:	687b      	ldr	r3, [r7, #4]
 8001326:	699b      	ldr	r3, [r3, #24]
 8001328:	2b00      	cmp	r3, #0
 800132a:	f000 80a1 	beq.w	8001470 <HAL_RCC_OscConfig+0x4e0>
  {
    /* Check if the PLL is used as system clock or not */
    if (__HAL_RCC_GET_SYSCLK_SOURCE() != RCC_CFGR_SWS_PLL)
 800132e:	4b34      	ldr	r3, [pc, #208]	@ (8001400 <HAL_RCC_OscConfig+0x470>)
 8001330:	689b      	ldr	r3, [r3, #8]
 8001332:	f003 030c 	and.w	r3, r3, #12
 8001336:	2b08      	cmp	r3, #8
 8001338:	d05c      	beq.n	80013f4 <HAL_RCC_OscConfig+0x464>
    {
      if ((RCC_OscInitStruct->PLL.PLLState) == RCC_PLL_ON)
 800133a:	687b      	ldr	r3, [r7, #4]
 800133c:	699b      	ldr	r3, [r3, #24]
 800133e:	2b02      	cmp	r3, #2
 8001340:	d141      	bne.n	80013c6 <HAL_RCC_OscConfig+0x436>
        assert_param(IS_RCC_PLLN_VALUE(RCC_OscInitStruct->PLL.PLLN));
        assert_param(IS_RCC_PLLP_VALUE(RCC_OscInitStruct->PLL.PLLP));
        assert_param(IS_RCC_PLLQ_VALUE(RCC_OscInitStruct->PLL.PLLQ));

        /* Disable the main PLL. */
        __HAL_RCC_PLL_DISABLE();
 8001342:	4b31      	ldr	r3, [pc, #196]	@ (8001408 <HAL_RCC_OscConfig+0x478>)
 8001344:	2200      	movs	r2, #0
 8001346:	601a      	str	r2, [r3, #0]

        /* Get Start Tick */
        tickstart = HAL_GetTick();
 8001348:	f7ff fb92 	bl	8000a70 <HAL_GetTick>
 800134c:	6138      	str	r0, [r7, #16]

        /* Wait till PLL is disabled */
        while (__HAL_RCC_GET_FLAG(RCC_FLAG_PLLRDY) != RESET)
 800134e:	e008      	b.n	8001362 <HAL_RCC_OscConfig+0x3d2>
        {
          if ((HAL_GetTick() - tickstart) > PLL_TIMEOUT_VALUE)
 8001350:	f7ff fb8e 	bl	8000a70 <HAL_GetTick>
 8001354:	4602      	mov	r2, r0
 8001356:	693b      	ldr	r3, [r7, #16]
 8001358:	1ad3      	subs	r3, r2, r3
 800135a:	2b02      	cmp	r3, #2
 800135c:	d901      	bls.n	8001362 <HAL_RCC_OscConfig+0x3d2>
          {
            return HAL_TIMEOUT;
 800135e:	2303      	movs	r3, #3
 8001360:	e087      	b.n	8001472 <HAL_RCC_OscConfig+0x4e2>
        while (__HAL_RCC_GET_FLAG(RCC_FLAG_PLLRDY) != RESET)
 8001362:	4b27      	ldr	r3, [pc, #156]	@ (8001400 <HAL_RCC_OscConfig+0x470>)
 8001364:	681b      	ldr	r3, [r3, #0]
 8001366:	f003 7300 	and.w	r3, r3, #33554432	@ 0x2000000
 800136a:	2b00      	cmp	r3, #0
 800136c:	d1f0      	bne.n	8001350 <HAL_RCC_OscConfig+0x3c0>
          }
        }

        /* Configure the main PLL clock source, multiplication and division factors. */
        WRITE_REG(RCC->PLLCFGR, (RCC_OscInitStruct->PLL.PLLSource                                            | \
 800136e:	687b      	ldr	r3, [r7, #4]
 8001370:	69da      	ldr	r2, [r3, #28]
 8001372:	687b      	ldr	r3, [r7, #4]
 8001374:	6a1b      	ldr	r3, [r3, #32]
 8001376:	431a      	orrs	r2, r3
 8001378:	687b      	ldr	r3, [r7, #4]
 800137a:	6a5b      	ldr	r3, [r3, #36]	@ 0x24
 800137c:	019b      	lsls	r3, r3, #6
 800137e:	431a      	orrs	r2, r3
 8001380:	687b      	ldr	r3, [r7, #4]
 8001382:	6a9b      	ldr	r3, [r3, #40]	@ 0x28
 8001384:	085b      	lsrs	r3, r3, #1
 8001386:	3b01      	subs	r3, #1
 8001388:	041b      	lsls	r3, r3, #16
 800138a:	431a      	orrs	r2, r3
 800138c:	687b      	ldr	r3, [r7, #4]
 800138e:	6adb      	ldr	r3, [r3, #44]	@ 0x2c
 8001390:	061b      	lsls	r3, r3, #24
 8001392:	491b      	ldr	r1, [pc, #108]	@ (8001400 <HAL_RCC_OscConfig+0x470>)
 8001394:	4313      	orrs	r3, r2
 8001396:	604b      	str	r3, [r1, #4]
                                 RCC_OscInitStruct->PLL.PLLM                                                 | \
                                 (RCC_OscInitStruct->PLL.PLLN << RCC_PLLCFGR_PLLN_Pos)             | \
                                 (((RCC_OscInitStruct->PLL.PLLP >> 1U) - 1U) << RCC_PLLCFGR_PLLP_Pos) | \
                                 (RCC_OscInitStruct->PLL.PLLQ << RCC_PLLCFGR_PLLQ_Pos)));
        /* Enable the main PLL. */
        __HAL_RCC_PLL_ENABLE();
 8001398:	4b1b      	ldr	r3, [pc, #108]	@ (8001408 <HAL_RCC_OscConfig+0x478>)
 800139a:	2201      	movs	r2, #1
 800139c:	601a      	str	r2, [r3, #0]

        /* Get Start Tick */
        tickstart = HAL_GetTick();
 800139e:	f7ff fb67 	bl	8000a70 <HAL_GetTick>
 80013a2:	6138      	str	r0, [r7, #16]

        /* Wait till PLL is ready */
        while (__HAL_RCC_GET_FLAG(RCC_FLAG_PLLRDY) == RESET)
 80013a4:	e008      	b.n	80013b8 <HAL_RCC_OscConfig+0x428>
        {
          if ((HAL_GetTick() - tickstart) > PLL_TIMEOUT_VALUE)
 80013a6:	f7ff fb63 	bl	8000a70 <HAL_GetTick>
 80013aa:	4602      	mov	r2, r0
 80013ac:	693b      	ldr	r3, [r7, #16]
 80013ae:	1ad3      	subs	r3, r2, r3
 80013b0:	2b02      	cmp	r3, #2
 80013b2:	d901      	bls.n	80013b8 <HAL_RCC_OscConfig+0x428>
          {
            return HAL_TIMEOUT;
 80013b4:	2303      	movs	r3, #3
 80013b6:	e05c      	b.n	8001472 <HAL_RCC_OscConfig+0x4e2>
        while (__HAL_RCC_GET_FLAG(RCC_FLAG_PLLRDY) == RESET)
 80013b8:	4b11      	ldr	r3, [pc, #68]	@ (8001400 <HAL_RCC_OscConfig+0x470>)
 80013ba:	681b      	ldr	r3, [r3, #0]
 80013bc:	f003 7300 	and.w	r3, r3, #33554432	@ 0x2000000
 80013c0:	2b00      	cmp	r3, #0
 80013c2:	d0f0      	beq.n	80013a6 <HAL_RCC_OscConfig+0x416>
 80013c4:	e054      	b.n	8001470 <HAL_RCC_OscConfig+0x4e0>
        }
      }
      else
      {
        /* Disable the main PLL. */
        __HAL_RCC_PLL_DISABLE();
 80013c6:	4b10      	ldr	r3, [pc, #64]	@ (8001408 <HAL_RCC_OscConfig+0x478>)
 80013c8:	2200      	movs	r2, #0
 80013ca:	601a      	str	r2, [r3, #0]

        /* Get Start Tick */
        tickstart = HAL_GetTick();
 80013cc:	f7ff fb50 	bl	8000a70 <HAL_GetTick>
 80013d0:	6138      	str	r0, [r7, #16]

        /* Wait till PLL is disabled */
        while (__HAL_RCC_GET_FLAG(RCC_FLAG_PLLRDY) != RESET)
 80013d2:	e008      	b.n	80013e6 <HAL_RCC_OscConfig+0x456>
        {
          if ((HAL_GetTick() - tickstart) > PLL_TIMEOUT_VALUE)
 80013d4:	f7ff fb4c 	bl	8000a70 <HAL_GetTick>
 80013d8:	4602      	mov	r2, r0
 80013da:	693b      	ldr	r3, [r7, #16]
 80013dc:	1ad3      	subs	r3, r2, r3
 80013de:	2b02      	cmp	r3, #2
 80013e0:	d901      	bls.n	80013e6 <HAL_RCC_OscConfig+0x456>
          {
            return HAL_TIMEOUT;
 80013e2:	2303      	movs	r3, #3
 80013e4:	e045      	b.n	8001472 <HAL_RCC_OscConfig+0x4e2>
        while (__HAL_RCC_GET_FLAG(RCC_FLAG_PLLRDY) != RESET)
 80013e6:	4b06      	ldr	r3, [pc, #24]	@ (8001400 <HAL_RCC_OscConfig+0x470>)
 80013e8:	681b      	ldr	r3, [r3, #0]
 80013ea:	f003 7300 	and.w	r3, r3, #33554432	@ 0x2000000
 80013ee:	2b00      	cmp	r3, #0
 80013f0:	d1f0      	bne.n	80013d4 <HAL_RCC_OscConfig+0x444>
 80013f2:	e03d      	b.n	8001470 <HAL_RCC_OscConfig+0x4e0>
      }
    }
    else
    {
      /* Check if there is a request to disable the PLL used as System clock source */
      if ((RCC_OscInitStruct->PLL.PLLState) == RCC_PLL_OFF)
 80013f4:	687b      	ldr	r3, [r7, #4]
 80013f6:	699b      	ldr	r3, [r3, #24]
 80013f8:	2b01      	cmp	r3, #1
 80013fa:	d107      	bne.n	800140c <HAL_RCC_OscConfig+0x47c>
      {
        return HAL_ERROR;
 80013fc:	2301      	movs	r3, #1
 80013fe:	e038      	b.n	8001472 <HAL_RCC_OscConfig+0x4e2>
 8001400:	40023800 	.word	0x40023800
 8001404:	40007000 	.word	0x40007000
 8001408:	42470060 	.word	0x42470060
      }
      else
      {
        /* Do not return HAL_ERROR if request repeats the current configuration */
        pll_config = RCC->PLLCFGR;
 800140c:	4b1b      	ldr	r3, [pc, #108]	@ (800147c <HAL_RCC_OscConfig+0x4ec>)
 800140e:	685b      	ldr	r3, [r3, #4]
 8001410:	60fb      	str	r3, [r7, #12]
            (READ_BIT(pll_config, RCC_PLLCFGR_PLLN) != (RCC_OscInitStruct->PLL.PLLN) << RCC_PLLCFGR_PLLN_Pos) ||
            (READ_BIT(pll_config, RCC_PLLCFGR_PLLP) != (((RCC_OscInitStruct->PLL.PLLP >> 1U) - 1U)) << RCC_PLLCFGR_PLLP_Pos) ||
            (READ_BIT(pll_config, RCC_PLLCFGR_PLLQ) != (RCC_OscInitStruct->PLL.PLLQ << RCC_PLLCFGR_PLLQ_Pos)) ||
            (READ_BIT(pll_config, RCC_PLLCFGR_PLLR) != (RCC_OscInitStruct->PLL.PLLR << RCC_PLLCFGR_PLLR_Pos)))
#else
        if (((RCC_OscInitStruct->PLL.PLLState) == RCC_PLL_OFF) ||
 8001412:	687b      	ldr	r3, [r7, #4]
 8001414:	699b      	ldr	r3, [r3, #24]
 8001416:	2b01      	cmp	r3, #1
 8001418:	d028      	beq.n	800146c <HAL_RCC_OscConfig+0x4dc>
            (READ_BIT(pll_config, RCC_PLLCFGR_PLLSRC) != RCC_OscInitStruct->PLL.PLLSource) ||
 800141a:	68fb      	ldr	r3, [r7, #12]
 800141c:	f403 0280 	and.w	r2, r3, #4194304	@ 0x400000
 8001420:	687b      	ldr	r3, [r7, #4]
 8001422:	69db      	ldr	r3, [r3, #28]
        if (((RCC_OscInitStruct->PLL.PLLState) == RCC_PLL_OFF) ||
 8001424:	429a      	cmp	r2, r3
 8001426:	d121      	bne.n	800146c <HAL_RCC_OscConfig+0x4dc>
            (READ_BIT(pll_config, RCC_PLLCFGR_PLLM) != (RCC_OscInitStruct->PLL.PLLM) << RCC_PLLCFGR_PLLM_Pos) ||
 8001428:	68fb      	ldr	r3, [r7, #12]
 800142a:	f003 023f 	and.w	r2, r3, #63	@ 0x3f
 800142e:	687b      	ldr	r3, [r7, #4]
 8001430:	6a1b      	ldr	r3, [r3, #32]
            (READ_BIT(pll_config, RCC_PLLCFGR_PLLSRC) != RCC_OscInitStruct->PLL.PLLSource) ||
 8001432:	429a      	cmp	r2, r3
 8001434:	d11a      	bne.n	800146c <HAL_RCC_OscConfig+0x4dc>
            (READ_BIT(pll_config, RCC_PLLCFGR_PLLN) != (RCC_OscInitStruct->PLL.PLLN) << RCC_PLLCFGR_PLLN_Pos) ||
 8001436:	68fa      	ldr	r2, [r7, #12]
 8001438:	f647 73c0 	movw	r3, #32704	@ 0x7fc0
 800143c:	4013      	ands	r3, r2
 800143e:	687a      	ldr	r2, [r7, #4]
 8001440:	6a52      	ldr	r2, [r2, #36]	@ 0x24
 8001442:	0192      	lsls	r2, r2, #6
            (READ_BIT(pll_config, RCC_PLLCFGR_PLLM) != (RCC_OscInitStruct->PLL.PLLM) << RCC_PLLCFGR_PLLM_Pos) ||
 8001444:	4293      	cmp	r3, r2
 8001446:	d111      	bne.n	800146c <HAL_RCC_OscConfig+0x4dc>
            (READ_BIT(pll_config, RCC_PLLCFGR_PLLP) != (((RCC_OscInitStruct->PLL.PLLP >> 1U) - 1U)) << RCC_PLLCFGR_PLLP_Pos) ||
 8001448:	68fb      	ldr	r3, [r7, #12]
 800144a:	f403 3240 	and.w	r2, r3, #196608	@ 0x30000
 800144e:	687b      	ldr	r3, [r7, #4]
 8001450:	6a9b      	ldr	r3, [r3, #40]	@ 0x28
 8001452:	085b      	lsrs	r3, r3, #1
 8001454:	3b01      	subs	r3, #1
 8001456:	041b      	lsls	r3, r3, #16
            (READ_BIT(pll_config, RCC_PLLCFGR_PLLN) != (RCC_OscInitStruct->PLL.PLLN) << RCC_PLLCFGR_PLLN_Pos) ||
 8001458:	429a      	cmp	r2, r3
 800145a:	d107      	bne.n	800146c <HAL_RCC_OscConfig+0x4dc>
            (READ_BIT(pll_config, RCC_PLLCFGR_PLLQ) != (RCC_OscInitStruct->PLL.PLLQ << RCC_PLLCFGR_PLLQ_Pos)))
 800145c:	68fb      	ldr	r3, [r7, #12]
 800145e:	f003 6270 	and.w	r2, r3, #251658240	@ 0xf000000
 8001462:	687b      	ldr	r3, [r7, #4]
 8001464:	6adb      	ldr	r3, [r3, #44]	@ 0x2c
 8001466:	061b      	lsls	r3, r3, #24
            (READ_BIT(pll_config, RCC_PLLCFGR_PLLP) != (((RCC_OscInitStruct->PLL.PLLP >> 1U) - 1U)) << RCC_PLLCFGR_PLLP_Pos) ||
 8001468:	429a      	cmp	r2, r3
 800146a:	d001      	beq.n	8001470 <HAL_RCC_OscConfig+0x4e0>
#endif /* RCC_PLLCFGR_PLLR */
        {
          return HAL_ERROR;
 800146c:	2301      	movs	r3, #1
 800146e:	e000      	b.n	8001472 <HAL_RCC_OscConfig+0x4e2>
        }
      }
    }
  }
  return HAL_OK;
 8001470:	2300      	movs	r3, #0
}
 8001472:	4618      	mov	r0, r3
 8001474:	3718      	adds	r7, #24
 8001476:	46bd      	mov	sp, r7
 8001478:	bd80      	pop	{r7, pc}
 800147a:	bf00      	nop
 800147c:	40023800 	.word	0x40023800

08001480 <HAL_RCC_ClockConfig>:
  *         HPRE[3:0] bits to ensure that HCLK not exceed the maximum allowed frequency
  *         (for more details refer to section above "Initialization/de-initialization functions")
  * @retval None
  */
HAL_StatusTypeDef HAL_RCC_ClockConfig(const RCC_ClkInitTypeDef  *RCC_ClkInitStruct, uint32_t FLatency)
{
 8001480:	b580      	push	{r7, lr}
 8001482:	b084      	sub	sp, #16
 8001484:	af00      	add	r7, sp, #0
 8001486:	6078      	str	r0, [r7, #4]
 8001488:	6039      	str	r1, [r7, #0]
  uint32_t tickstart;

  /* Check Null pointer */
  if (RCC_ClkInitStruct == NULL)
 800148a:	687b      	ldr	r3, [r7, #4]
 800148c:	2b00      	cmp	r3, #0
 800148e:	d101      	bne.n	8001494 <HAL_RCC_ClockConfig+0x14>
  {
    return HAL_ERROR;
 8001490:	2301      	movs	r3, #1
 8001492:	e0cc      	b.n	800162e <HAL_RCC_ClockConfig+0x1ae>
  /* To correctly read data from FLASH memory, the number of wait states (LATENCY)
    must be correctly programmed according to the frequency of the CPU clock
    (HCLK) and the supply voltage of the device. */

  /* Increasing the number of wait states because of higher CPU frequency */
  if (FLatency > __HAL_FLASH_GET_LATENCY())
 8001494:	4b68      	ldr	r3, [pc, #416]	@ (8001638 <HAL_RCC_ClockConfig+0x1b8>)
 8001496:	681b      	ldr	r3, [r3, #0]
 8001498:	f003 0307 	and.w	r3, r3, #7
 800149c:	683a      	ldr	r2, [r7, #0]
 800149e:	429a      	cmp	r2, r3
 80014a0:	d90c      	bls.n	80014bc <HAL_RCC_ClockConfig+0x3c>
  {
    /* Program the new number of wait states to the LATENCY bits in the FLASH_ACR register */
    __HAL_FLASH_SET_LATENCY(FLatency);
 80014a2:	4b65      	ldr	r3, [pc, #404]	@ (8001638 <HAL_RCC_ClockConfig+0x1b8>)
 80014a4:	683a      	ldr	r2, [r7, #0]
 80014a6:	b2d2      	uxtb	r2, r2
 80014a8:	701a      	strb	r2, [r3, #0]

    /* Check that the new number of wait states is taken into account to access the Flash
    memory by reading the FLASH_ACR register */
    if (__HAL_FLASH_GET_LATENCY() != FLatency)
 80014aa:	4b63      	ldr	r3, [pc, #396]	@ (8001638 <HAL_RCC_ClockConfig+0x1b8>)
 80014ac:	681b      	ldr	r3, [r3, #0]
 80014ae:	f003 0307 	and.w	r3, r3, #7
 80014b2:	683a      	ldr	r2, [r7, #0]
 80014b4:	429a      	cmp	r2, r3
 80014b6:	d001      	beq.n	80014bc <HAL_RCC_ClockConfig+0x3c>
    {
      return HAL_ERROR;
 80014b8:	2301      	movs	r3, #1
 80014ba:	e0b8      	b.n	800162e <HAL_RCC_ClockConfig+0x1ae>
    }
  }

  /*-------------------------- HCLK Configuration --------------------------*/
  if (((RCC_ClkInitStruct->ClockType) & RCC_CLOCKTYPE_HCLK) == RCC_CLOCKTYPE_HCLK)
 80014bc:	687b      	ldr	r3, [r7, #4]
 80014be:	681b      	ldr	r3, [r3, #0]
 80014c0:	f003 0302 	and.w	r3, r3, #2
 80014c4:	2b00      	cmp	r3, #0
 80014c6:	d020      	beq.n	800150a <HAL_RCC_ClockConfig+0x8a>
  {
    /* Set the highest APBx dividers in order to ensure that we do not go through
       a non-spec phase whatever we decrease or increase HCLK. */
    if (((RCC_ClkInitStruct->ClockType) & RCC_CLOCKTYPE_PCLK1) == RCC_CLOCKTYPE_PCLK1)
 80014c8:	687b      	ldr	r3, [r7, #4]
 80014ca:	681b      	ldr	r3, [r3, #0]
 80014cc:	f003 0304 	and.w	r3, r3, #4
 80014d0:	2b00      	cmp	r3, #0
 80014d2:	d005      	beq.n	80014e0 <HAL_RCC_ClockConfig+0x60>
    {
      MODIFY_REG(RCC->CFGR, RCC_CFGR_PPRE1, RCC_HCLK_DIV16);
 80014d4:	4b59      	ldr	r3, [pc, #356]	@ (800163c <HAL_RCC_ClockConfig+0x1bc>)
 80014d6:	689b      	ldr	r3, [r3, #8]
 80014d8:	4a58      	ldr	r2, [pc, #352]	@ (800163c <HAL_RCC_ClockConfig+0x1bc>)
 80014da:	f443 53e0 	orr.w	r3, r3, #7168	@ 0x1c00
 80014de:	6093      	str	r3, [r2, #8]
    }

    if (((RCC_ClkInitStruct->ClockType) & RCC_CLOCKTYPE_PCLK2) == RCC_CLOCKTYPE_PCLK2)
 80014e0:	687b      	ldr	r3, [r7, #4]
 80014e2:	681b      	ldr	r3, [r3, #0]
 80014e4:	f003 0308 	and.w	r3, r3, #8
 80014e8:	2b00      	cmp	r3, #0
 80014ea:	d005      	beq.n	80014f8 <HAL_RCC_ClockConfig+0x78>
    {
      MODIFY_REG(RCC->CFGR, RCC_CFGR_PPRE2, (RCC_HCLK_DIV16 << 3));
 80014ec:	4b53      	ldr	r3, [pc, #332]	@ (800163c <HAL_RCC_ClockConfig+0x1bc>)
 80014ee:	689b      	ldr	r3, [r3, #8]
 80014f0:	4a52      	ldr	r2, [pc, #328]	@ (800163c <HAL_RCC_ClockConfig+0x1bc>)
 80014f2:	f443 4360 	orr.w	r3, r3, #57344	@ 0xe000
 80014f6:	6093      	str	r3, [r2, #8]
    }

    assert_param(IS_RCC_HCLK(RCC_ClkInitStruct->AHBCLKDivider));
    MODIFY_REG(RCC->CFGR, RCC_CFGR_HPRE, RCC_ClkInitStruct->AHBCLKDivider);
 80014f8:	4b50      	ldr	r3, [pc, #320]	@ (800163c <HAL_RCC_ClockConfig+0x1bc>)
 80014fa:	689b      	ldr	r3, [r3, #8]
 80014fc:	f023 02f0 	bic.w	r2, r3, #240	@ 0xf0
 8001500:	687b      	ldr	r3, [r7, #4]
 8001502:	689b      	ldr	r3, [r3, #8]
 8001504:	494d      	ldr	r1, [pc, #308]	@ (800163c <HAL_RCC_ClockConfig+0x1bc>)
 8001506:	4313      	orrs	r3, r2
 8001508:	608b      	str	r3, [r1, #8]
  }

  /*------------------------- SYSCLK Configuration ---------------------------*/
  if (((RCC_ClkInitStruct->ClockType) & RCC_CLOCKTYPE_SYSCLK) == RCC_CLOCKTYPE_SYSCLK)
 800150a:	687b      	ldr	r3, [r7, #4]
 800150c:	681b      	ldr	r3, [r3, #0]
 800150e:	f003 0301 	and.w	r3, r3, #1
 8001512:	2b00      	cmp	r3, #0
 8001514:	d044      	beq.n	80015a0 <HAL_RCC_ClockConfig+0x120>
  {
    assert_param(IS_RCC_SYSCLKSOURCE(RCC_ClkInitStruct->SYSCLKSource));

    /* HSE is selected as System Clock Source */
    if (RCC_ClkInitStruct->SYSCLKSource == RCC_SYSCLKSOURCE_HSE)
 8001516:	687b      	ldr	r3, [r7, #4]
 8001518:	685b      	ldr	r3, [r3, #4]
 800151a:	2b01      	cmp	r3, #1
 800151c:	d107      	bne.n	800152e <HAL_RCC_ClockConfig+0xae>
    {
      /* Check the HSE ready flag */
      if (__HAL_RCC_GET_FLAG(RCC_FLAG_HSERDY) == RESET)
 800151e:	4b47      	ldr	r3, [pc, #284]	@ (800163c <HAL_RCC_ClockConfig+0x1bc>)
 8001520:	681b      	ldr	r3, [r3, #0]
 8001522:	f403 3300 	and.w	r3, r3, #131072	@ 0x20000
 8001526:	2b00      	cmp	r3, #0
 8001528:	d119      	bne.n	800155e <HAL_RCC_ClockConfig+0xde>
      {
        return HAL_ERROR;
 800152a:	2301      	movs	r3, #1
 800152c:	e07f      	b.n	800162e <HAL_RCC_ClockConfig+0x1ae>
      }
    }
    /* PLL is selected as System Clock Source */
    else if ((RCC_ClkInitStruct->SYSCLKSource == RCC_SYSCLKSOURCE_PLLCLK)   ||
 800152e:	687b      	ldr	r3, [r7, #4]
 8001530:	685b      	ldr	r3, [r3, #4]
 8001532:	2b02      	cmp	r3, #2
 8001534:	d003      	beq.n	800153e <HAL_RCC_ClockConfig+0xbe>
             (RCC_ClkInitStruct->SYSCLKSource == RCC_SYSCLKSOURCE_PLLRCLK))
 8001536:	687b      	ldr	r3, [r7, #4]
 8001538:	685b      	ldr	r3, [r3, #4]
    else if ((RCC_ClkInitStruct->SYSCLKSource == RCC_SYSCLKSOURCE_PLLCLK)   ||
 800153a:	2b03      	cmp	r3, #3
 800153c:	d107      	bne.n	800154e <HAL_RCC_ClockConfig+0xce>
    {
      /* Check the PLL ready flag */
      if (__HAL_RCC_GET_FLAG(RCC_FLAG_PLLRDY) == RESET)
 800153e:	4b3f      	ldr	r3, [pc, #252]	@ (800163c <HAL_RCC_ClockConfig+0x1bc>)
 8001540:	681b      	ldr	r3, [r3, #0]
 8001542:	f003 7300 	and.w	r3, r3, #33554432	@ 0x2000000
 8001546:	2b00      	cmp	r3, #0
 8001548:	d109      	bne.n	800155e <HAL_RCC_ClockConfig+0xde>
      {
        return HAL_ERROR;
 800154a:	2301      	movs	r3, #1
 800154c:	e06f      	b.n	800162e <HAL_RCC_ClockConfig+0x1ae>
    }
    /* HSI is selected as System Clock Source */
    else
    {
      /* Check the HSI ready flag */
      if (__HAL_RCC_GET_FLAG(RCC_FLAG_HSIRDY) == RESET)
 800154e:	4b3b      	ldr	r3, [pc, #236]	@ (800163c <HAL_RCC_ClockConfig+0x1bc>)
 8001550:	681b      	ldr	r3, [r3, #0]
 8001552:	f003 0302 	and.w	r3, r3, #2
 8001556:	2b00      	cmp	r3, #0
 8001558:	d101      	bne.n	800155e <HAL_RCC_ClockConfig+0xde>
      {
        return HAL_ERROR;
 800155a:	2301      	movs	r3, #1
 800155c:	e067      	b.n	800162e <HAL_RCC_ClockConfig+0x1ae>
      }
    }

    __HAL_RCC_SYSCLK_CONFIG(RCC_ClkInitStruct->SYSCLKSource);
 800155e:	4b37      	ldr	r3, [pc, #220]	@ (800163c <HAL_RCC_ClockConfig+0x1bc>)
 8001560:	689b      	ldr	r3, [r3, #8]
 8001562:	f023 0203 	bic.w	r2, r3, #3
 8001566:	687b      	ldr	r3, [r7, #4]
 8001568:	685b      	ldr	r3, [r3, #4]
 800156a:	4934      	ldr	r1, [pc, #208]	@ (800163c <HAL_RCC_ClockConfig+0x1bc>)
 800156c:	4313      	orrs	r3, r2
 800156e:	608b      	str	r3, [r1, #8]

    /* Get Start Tick */
    tickstart = HAL_GetTick();
 8001570:	f7ff fa7e 	bl	8000a70 <HAL_GetTick>
 8001574:	60f8      	str	r0, [r7, #12]

    while (__HAL_RCC_GET_SYSCLK_SOURCE() != (RCC_ClkInitStruct->SYSCLKSource << RCC_CFGR_SWS_Pos))
 8001576:	e00a      	b.n	800158e <HAL_RCC_ClockConfig+0x10e>
    {
      if ((HAL_GetTick() - tickstart) > CLOCKSWITCH_TIMEOUT_VALUE)
 8001578:	f7ff fa7a 	bl	8000a70 <HAL_GetTick>
 800157c:	4602      	mov	r2, r0
 800157e:	68fb      	ldr	r3, [r7, #12]
 8001580:	1ad3      	subs	r3, r2, r3
 8001582:	f241 3288 	movw	r2, #5000	@ 0x1388
 8001586:	4293      	cmp	r3, r2
 8001588:	d901      	bls.n	800158e <HAL_RCC_ClockConfig+0x10e>
      {
        return HAL_TIMEOUT;
 800158a:	2303      	movs	r3, #3
 800158c:	e04f      	b.n	800162e <HAL_RCC_ClockConfig+0x1ae>
    while (__HAL_RCC_GET_SYSCLK_SOURCE() != (RCC_ClkInitStruct->SYSCLKSource << RCC_CFGR_SWS_Pos))
 800158e:	4b2b      	ldr	r3, [pc, #172]	@ (800163c <HAL_RCC_ClockConfig+0x1bc>)
 8001590:	689b      	ldr	r3, [r3, #8]
 8001592:	f003 020c 	and.w	r2, r3, #12
 8001596:	687b      	ldr	r3, [r7, #4]
 8001598:	685b      	ldr	r3, [r3, #4]
 800159a:	009b      	lsls	r3, r3, #2
 800159c:	429a      	cmp	r2, r3
 800159e:	d1eb      	bne.n	8001578 <HAL_RCC_ClockConfig+0xf8>
      }
    }
  }

  /* Decreasing the number of wait states because of lower CPU frequency */
  if (FLatency < __HAL_FLASH_GET_LATENCY())
 80015a0:	4b25      	ldr	r3, [pc, #148]	@ (8001638 <HAL_RCC_ClockConfig+0x1b8>)
 80015a2:	681b      	ldr	r3, [r3, #0]
 80015a4:	f003 0307 	and.w	r3, r3, #7
 80015a8:	683a      	ldr	r2, [r7, #0]
 80015aa:	429a      	cmp	r2, r3
 80015ac:	d20c      	bcs.n	80015c8 <HAL_RCC_ClockConfig+0x148>
  {
    /* Program the new number of wait states to the LATENCY bits in the FLASH_ACR register */
    __HAL_FLASH_SET_LATENCY(FLatency);
 80015ae:	4b22      	ldr	r3, [pc, #136]	@ (8001638 <HAL_RCC_ClockConfig+0x1b8>)
 80015b0:	683a      	ldr	r2, [r7, #0]
 80015b2:	b2d2      	uxtb	r2, r2
 80015b4:	701a      	strb	r2, [r3, #0]

    /* Check that the new number of wait states is taken into account to access the Flash
    memory by reading the FLASH_ACR register */
    if (__HAL_FLASH_GET_LATENCY() != FLatency)
 80015b6:	4b20      	ldr	r3, [pc, #128]	@ (8001638 <HAL_RCC_ClockConfig+0x1b8>)
 80015b8:	681b      	ldr	r3, [r3, #0]
 80015ba:	f003 0307 	and.w	r3, r3, #7
 80015be:	683a      	ldr	r2, [r7, #0]
 80015c0:	429a      	cmp	r2, r3
 80015c2:	d001      	beq.n	80015c8 <HAL_RCC_ClockConfig+0x148>
    {
      return HAL_ERROR;
 80015c4:	2301      	movs	r3, #1
 80015c6:	e032      	b.n	800162e <HAL_RCC_ClockConfig+0x1ae>
    }
  }

  /*-------------------------- PCLK1 Configuration ---------------------------*/
  if (((RCC_ClkInitStruct->ClockType) & RCC_CLOCKTYPE_PCLK1) == RCC_CLOCKTYPE_PCLK1)
 80015c8:	687b      	ldr	r3, [r7, #4]
 80015ca:	681b      	ldr	r3, [r3, #0]
 80015cc:	f003 0304 	and.w	r3, r3, #4
 80015d0:	2b00      	cmp	r3, #0
 80015d2:	d008      	beq.n	80015e6 <HAL_RCC_ClockConfig+0x166>
  {
    assert_param(IS_RCC_PCLK(RCC_ClkInitStruct->APB1CLKDivider));
    MODIFY_REG(RCC->CFGR, RCC_CFGR_PPRE1, RCC_ClkInitStruct->APB1CLKDivider);
 80015d4:	4b19      	ldr	r3, [pc, #100]	@ (800163c <HAL_RCC_ClockConfig+0x1bc>)
 80015d6:	689b      	ldr	r3, [r3, #8]
 80015d8:	f423 52e0 	bic.w	r2, r3, #7168	@ 0x1c00
 80015dc:	687b      	ldr	r3, [r7, #4]
 80015de:	68db      	ldr	r3, [r3, #12]
 80015e0:	4916      	ldr	r1, [pc, #88]	@ (800163c <HAL_RCC_ClockConfig+0x1bc>)
 80015e2:	4313      	orrs	r3, r2
 80015e4:	608b      	str	r3, [r1, #8]
  }

  /*-------------------------- PCLK2 Configuration ---------------------------*/
  if (((RCC_ClkInitStruct->ClockType) & RCC_CLOCKTYPE_PCLK2) == RCC_CLOCKTYPE_PCLK2)
 80015e6:	687b      	ldr	r3, [r7, #4]
 80015e8:	681b      	ldr	r3, [r3, #0]
 80015ea:	f003 0308 	and.w	r3, r3, #8
 80015ee:	2b00      	cmp	r3, #0
 80015f0:	d009      	beq.n	8001606 <HAL_RCC_ClockConfig+0x186>
  {
    assert_param(IS_RCC_PCLK(RCC_ClkInitStruct->APB2CLKDivider));
    MODIFY_REG(RCC->CFGR, RCC_CFGR_PPRE2, ((RCC_ClkInitStruct->APB2CLKDivider) << 3U));
 80015f2:	4b12      	ldr	r3, [pc, #72]	@ (800163c <HAL_RCC_ClockConfig+0x1bc>)
 80015f4:	689b      	ldr	r3, [r3, #8]
 80015f6:	f423 4260 	bic.w	r2, r3, #57344	@ 0xe000
 80015fa:	687b      	ldr	r3, [r7, #4]
 80015fc:	691b      	ldr	r3, [r3, #16]
 80015fe:	00db      	lsls	r3, r3, #3
 8001600:	490e      	ldr	r1, [pc, #56]	@ (800163c <HAL_RCC_ClockConfig+0x1bc>)
 8001602:	4313      	orrs	r3, r2
 8001604:	608b      	str	r3, [r1, #8]
  }

  /* Update the SystemCoreClock global variable */
  SystemCoreClock = HAL_RCC_GetSysClockFreq() >> AHBPrescTable[(RCC->CFGR & RCC_CFGR_HPRE) >> RCC_CFGR_HPRE_Pos];
 8001606:	f000 f821 	bl	800164c <HAL_RCC_GetSysClockFreq>
 800160a:	4602      	mov	r2, r0
 800160c:	4b0b      	ldr	r3, [pc, #44]	@ (800163c <HAL_RCC_ClockConfig+0x1bc>)
 800160e:	689b      	ldr	r3, [r3, #8]
 8001610:	091b      	lsrs	r3, r3, #4
 8001612:	f003 030f 	and.w	r3, r3, #15
 8001616:	490a      	ldr	r1, [pc, #40]	@ (8001640 <HAL_RCC_ClockConfig+0x1c0>)
 8001618:	5ccb      	ldrb	r3, [r1, r3]
 800161a:	fa22 f303 	lsr.w	r3, r2, r3
 800161e:	4a09      	ldr	r2, [pc, #36]	@ (8001644 <HAL_RCC_ClockConfig+0x1c4>)
 8001620:	6013      	str	r3, [r2, #0]

  /* Configure the source of time base considering new system clocks settings */
  HAL_InitTick(uwTickPrio);
 8001622:	4b09      	ldr	r3, [pc, #36]	@ (8001648 <HAL_RCC_ClockConfig+0x1c8>)
 8001624:	681b      	ldr	r3, [r3, #0]
 8001626:	4618      	mov	r0, r3
 8001628:	f7ff f9de 	bl	80009e8 <HAL_InitTick>

  return HAL_OK;
 800162c:	2300      	movs	r3, #0
}
 800162e:	4618      	mov	r0, r3
 8001630:	3710      	adds	r7, #16
 8001632:	46bd      	mov	sp, r7
 8001634:	bd80      	pop	{r7, pc}
 8001636:	bf00      	nop
 8001638:	40023c00 	.word	0x40023c00
 800163c:	40023800 	.word	0x40023800
 8001640:	08001eb8 	.word	0x08001eb8
 8001644:	20000000 	.word	0x20000000
 8001648:	20000004 	.word	0x20000004

0800164c <HAL_RCC_GetSysClockFreq>:
  *
  *
  * @retval SYSCLK frequency
  */
__weak uint32_t HAL_RCC_GetSysClockFreq(void)
{
 800164c:	e92d 4fb0 	stmdb	sp!, {r4, r5, r7, r8, r9, sl, fp, lr}
 8001650:	b094      	sub	sp, #80	@ 0x50
 8001652:	af00      	add	r7, sp, #0
  uint32_t pllm = 0U;
 8001654:	2300      	movs	r3, #0
 8001656:	647b      	str	r3, [r7, #68]	@ 0x44
  uint32_t pllvco = 0U;
 8001658:	2300      	movs	r3, #0
 800165a:	64fb      	str	r3, [r7, #76]	@ 0x4c
  uint32_t pllp = 0U;
 800165c:	2300      	movs	r3, #0
 800165e:	643b      	str	r3, [r7, #64]	@ 0x40
  uint32_t sysclockfreq = 0U;
 8001660:	2300      	movs	r3, #0
 8001662:	64bb      	str	r3, [r7, #72]	@ 0x48

  /* Get SYSCLK source -------------------------------------------------------*/
  switch (RCC->CFGR & RCC_CFGR_SWS)
 8001664:	4b79      	ldr	r3, [pc, #484]	@ (800184c <HAL_RCC_GetSysClockFreq+0x200>)
 8001666:	689b      	ldr	r3, [r3, #8]
 8001668:	f003 030c 	and.w	r3, r3, #12
 800166c:	2b08      	cmp	r3, #8
 800166e:	d00d      	beq.n	800168c <HAL_RCC_GetSysClockFreq+0x40>
 8001670:	2b08      	cmp	r3, #8
 8001672:	f200 80e1 	bhi.w	8001838 <HAL_RCC_GetSysClockFreq+0x1ec>
 8001676:	2b00      	cmp	r3, #0
 8001678:	d002      	beq.n	8001680 <HAL_RCC_GetSysClockFreq+0x34>
 800167a:	2b04      	cmp	r3, #4
 800167c:	d003      	beq.n	8001686 <HAL_RCC_GetSysClockFreq+0x3a>
 800167e:	e0db      	b.n	8001838 <HAL_RCC_GetSysClockFreq+0x1ec>
  {
    case RCC_CFGR_SWS_HSI:  /* HSI used as system clock source */
    {
      sysclockfreq = HSI_VALUE;
 8001680:	4b73      	ldr	r3, [pc, #460]	@ (8001850 <HAL_RCC_GetSysClockFreq+0x204>)
 8001682:	64bb      	str	r3, [r7, #72]	@ 0x48
      break;
 8001684:	e0db      	b.n	800183e <HAL_RCC_GetSysClockFreq+0x1f2>
    }
    case RCC_CFGR_SWS_HSE:  /* HSE used as system clock  source */
    {
      sysclockfreq = HSE_VALUE;
 8001686:	4b73      	ldr	r3, [pc, #460]	@ (8001854 <HAL_RCC_GetSysClockFreq+0x208>)
 8001688:	64bb      	str	r3, [r7, #72]	@ 0x48
      break;
 800168a:	e0d8      	b.n	800183e <HAL_RCC_GetSysClockFreq+0x1f2>
    }
    case RCC_CFGR_SWS_PLL:  /* PLL used as system clock  source */
    {
      /* PLL_VCO = (HSE_VALUE or HSI_VALUE / PLLM) * PLLN
      SYSCLK = PLL_VCO / PLLP */
      pllm = RCC->PLLCFGR & RCC_PLLCFGR_PLLM;
 800168c:	4b6f      	ldr	r3, [pc, #444]	@ (800184c <HAL_RCC_GetSysClockFreq+0x200>)
 800168e:	685b      	ldr	r3, [r3, #4]
 8001690:	f003 033f 	and.w	r3, r3, #63	@ 0x3f
 8001694:	647b      	str	r3, [r7, #68]	@ 0x44
      if (__HAL_RCC_GET_PLL_OSCSOURCE() != RCC_PLLSOURCE_HSI)
 8001696:	4b6d      	ldr	r3, [pc, #436]	@ (800184c <HAL_RCC_GetSysClockFreq+0x200>)
 8001698:	685b      	ldr	r3, [r3, #4]
 800169a:	f403 0380 	and.w	r3, r3, #4194304	@ 0x400000
 800169e:	2b00      	cmp	r3, #0
 80016a0:	d063      	beq.n	800176a <HAL_RCC_GetSysClockFreq+0x11e>
      {
        /* HSE used as PLL clock source */
        pllvco = (uint32_t)((((uint64_t) HSE_VALUE * ((uint64_t)((RCC->PLLCFGR & RCC_PLLCFGR_PLLN) >> RCC_PLLCFGR_PLLN_Pos)))) / (uint64_t)pllm);
 80016a2:	4b6a      	ldr	r3, [pc, #424]	@ (800184c <HAL_RCC_GetSysClockFreq+0x200>)
 80016a4:	685b      	ldr	r3, [r3, #4]
 80016a6:	099b      	lsrs	r3, r3, #6
 80016a8:	2200      	movs	r2, #0
 80016aa:	63bb      	str	r3, [r7, #56]	@ 0x38
 80016ac:	63fa      	str	r2, [r7, #60]	@ 0x3c
 80016ae:	6bbb      	ldr	r3, [r7, #56]	@ 0x38
 80016b0:	f3c3 0308 	ubfx	r3, r3, #0, #9
 80016b4:	633b      	str	r3, [r7, #48]	@ 0x30
 80016b6:	2300      	movs	r3, #0
 80016b8:	637b      	str	r3, [r7, #52]	@ 0x34
 80016ba:	e9d7 450c 	ldrd	r4, r5, [r7, #48]	@ 0x30
 80016be:	4622      	mov	r2, r4
 80016c0:	462b      	mov	r3, r5
 80016c2:	f04f 0000 	mov.w	r0, #0
 80016c6:	f04f 0100 	mov.w	r1, #0
 80016ca:	0159      	lsls	r1, r3, #5
 80016cc:	ea41 61d2 	orr.w	r1, r1, r2, lsr #27
 80016d0:	0150      	lsls	r0, r2, #5
 80016d2:	4602      	mov	r2, r0
 80016d4:	460b      	mov	r3, r1
 80016d6:	4621      	mov	r1, r4
 80016d8:	1a51      	subs	r1, r2, r1
 80016da:	6139      	str	r1, [r7, #16]
 80016dc:	4629      	mov	r1, r5
 80016de:	eb63 0301 	sbc.w	r3, r3, r1
 80016e2:	617b      	str	r3, [r7, #20]
 80016e4:	f04f 0200 	mov.w	r2, #0
 80016e8:	f04f 0300 	mov.w	r3, #0
 80016ec:	e9d7 ab04 	ldrd	sl, fp, [r7, #16]
 80016f0:	4659      	mov	r1, fp
 80016f2:	018b      	lsls	r3, r1, #6
 80016f4:	4651      	mov	r1, sl
 80016f6:	ea43 6391 	orr.w	r3, r3, r1, lsr #26
 80016fa:	4651      	mov	r1, sl
 80016fc:	018a      	lsls	r2, r1, #6
 80016fe:	4651      	mov	r1, sl
 8001700:	ebb2 0801 	subs.w	r8, r2, r1
 8001704:	4659      	mov	r1, fp
 8001706:	eb63 0901 	sbc.w	r9, r3, r1
 800170a:	f04f 0200 	mov.w	r2, #0
 800170e:	f04f 0300 	mov.w	r3, #0
 8001712:	ea4f 03c9 	mov.w	r3, r9, lsl #3
 8001716:	ea43 7358 	orr.w	r3, r3, r8, lsr #29
 800171a:	ea4f 02c8 	mov.w	r2, r8, lsl #3
 800171e:	4690      	mov	r8, r2
 8001720:	4699      	mov	r9, r3
 8001722:	4623      	mov	r3, r4
 8001724:	eb18 0303 	adds.w	r3, r8, r3
 8001728:	60bb      	str	r3, [r7, #8]
 800172a:	462b      	mov	r3, r5
 800172c:	eb49 0303 	adc.w	r3, r9, r3
 8001730:	60fb      	str	r3, [r7, #12]
 8001732:	f04f 0200 	mov.w	r2, #0
 8001736:	f04f 0300 	mov.w	r3, #0
 800173a:	e9d7 4502 	ldrd	r4, r5, [r7, #8]
 800173e:	4629      	mov	r1, r5
 8001740:	024b      	lsls	r3, r1, #9
 8001742:	4621      	mov	r1, r4
 8001744:	ea43 53d1 	orr.w	r3, r3, r1, lsr #23
 8001748:	4621      	mov	r1, r4
 800174a:	024a      	lsls	r2, r1, #9
 800174c:	4610      	mov	r0, r2
 800174e:	4619      	mov	r1, r3
 8001750:	6c7b      	ldr	r3, [r7, #68]	@ 0x44
 8001752:	2200      	movs	r2, #0
 8001754:	62bb      	str	r3, [r7, #40]	@ 0x28
 8001756:	62fa      	str	r2, [r7, #44]	@ 0x2c
 8001758:	e9d7 230a 	ldrd	r2, r3, [r7, #40]	@ 0x28
 800175c:	f7fe fd3a 	bl	80001d4 <__aeabi_uldivmod>
 8001760:	4602      	mov	r2, r0
 8001762:	460b      	mov	r3, r1
 8001764:	4613      	mov	r3, r2
 8001766:	64fb      	str	r3, [r7, #76]	@ 0x4c
 8001768:	e058      	b.n	800181c <HAL_RCC_GetSysClockFreq+0x1d0>
      }
      else
      {
        /* HSI used as PLL clock source */
        pllvco = (uint32_t)((((uint64_t) HSI_VALUE * ((uint64_t)((RCC->PLLCFGR & RCC_PLLCFGR_PLLN) >> RCC_PLLCFGR_PLLN_Pos)))) / (uint64_t)pllm);
 800176a:	4b38      	ldr	r3, [pc, #224]	@ (800184c <HAL_RCC_GetSysClockFreq+0x200>)
 800176c:	685b      	ldr	r3, [r3, #4]
 800176e:	099b      	lsrs	r3, r3, #6
 8001770:	2200      	movs	r2, #0
 8001772:	4618      	mov	r0, r3
 8001774:	4611      	mov	r1, r2
 8001776:	f3c0 0308 	ubfx	r3, r0, #0, #9
 800177a:	623b      	str	r3, [r7, #32]
 800177c:	2300      	movs	r3, #0
 800177e:	627b      	str	r3, [r7, #36]	@ 0x24
 8001780:	e9d7 8908 	ldrd	r8, r9, [r7, #32]
 8001784:	4642      	mov	r2, r8
 8001786:	464b      	mov	r3, r9
 8001788:	f04f 0000 	mov.w	r0, #0
 800178c:	f04f 0100 	mov.w	r1, #0
 8001790:	0159      	lsls	r1, r3, #5
 8001792:	ea41 61d2 	orr.w	r1, r1, r2, lsr #27
 8001796:	0150      	lsls	r0, r2, #5
 8001798:	4602      	mov	r2, r0
 800179a:	460b      	mov	r3, r1
 800179c:	4641      	mov	r1, r8
 800179e:	ebb2 0a01 	subs.w	sl, r2, r1
 80017a2:	4649      	mov	r1, r9
 80017a4:	eb63 0b01 	sbc.w	fp, r3, r1
 80017a8:	f04f 0200 	mov.w	r2, #0
 80017ac:	f04f 0300 	mov.w	r3, #0
 80017b0:	ea4f 138b 	mov.w	r3, fp, lsl #6
 80017b4:	ea43 639a 	orr.w	r3, r3, sl, lsr #26
 80017b8:	ea4f 128a 	mov.w	r2, sl, lsl #6
 80017bc:	ebb2 040a 	subs.w	r4, r2, sl
 80017c0:	eb63 050b 	sbc.w	r5, r3, fp
 80017c4:	f04f 0200 	mov.w	r2, #0
 80017c8:	f04f 0300 	mov.w	r3, #0
 80017cc:	00eb      	lsls	r3, r5, #3
 80017ce:	ea43 7354 	orr.w	r3, r3, r4, lsr #29
 80017d2:	00e2      	lsls	r2, r4, #3
 80017d4:	4614      	mov	r4, r2
 80017d6:	461d      	mov	r5, r3
 80017d8:	4643      	mov	r3, r8
 80017da:	18e3      	adds	r3, r4, r3
 80017dc:	603b      	str	r3, [r7, #0]
 80017de:	464b      	mov	r3, r9
 80017e0:	eb45 0303 	adc.w	r3, r5, r3
 80017e4:	607b      	str	r3, [r7, #4]
 80017e6:	f04f 0200 	mov.w	r2, #0
 80017ea:	f04f 0300 	mov.w	r3, #0
 80017ee:	e9d7 4500 	ldrd	r4, r5, [r7]
 80017f2:	4629      	mov	r1, r5
 80017f4:	028b      	lsls	r3, r1, #10
 80017f6:	4621      	mov	r1, r4
 80017f8:	ea43 5391 	orr.w	r3, r3, r1, lsr #22
 80017fc:	4621      	mov	r1, r4
 80017fe:	028a      	lsls	r2, r1, #10
 8001800:	4610      	mov	r0, r2
 8001802:	4619      	mov	r1, r3
 8001804:	6c7b      	ldr	r3, [r7, #68]	@ 0x44
 8001806:	2200      	movs	r2, #0
 8001808:	61bb      	str	r3, [r7, #24]
 800180a:	61fa      	str	r2, [r7, #28]
 800180c:	e9d7 2306 	ldrd	r2, r3, [r7, #24]
 8001810:	f7fe fce0 	bl	80001d4 <__aeabi_uldivmod>
 8001814:	4602      	mov	r2, r0
 8001816:	460b      	mov	r3, r1
 8001818:	4613      	mov	r3, r2
 800181a:	64fb      	str	r3, [r7, #76]	@ 0x4c
      }
      pllp = ((((RCC->PLLCFGR & RCC_PLLCFGR_PLLP) >> RCC_PLLCFGR_PLLP_Pos) + 1U) * 2U);
 800181c:	4b0b      	ldr	r3, [pc, #44]	@ (800184c <HAL_RCC_GetSysClockFreq+0x200>)
 800181e:	685b      	ldr	r3, [r3, #4]
 8001820:	0c1b      	lsrs	r3, r3, #16
 8001822:	f003 0303 	and.w	r3, r3, #3
 8001826:	3301      	adds	r3, #1
 8001828:	005b      	lsls	r3, r3, #1
 800182a:	643b      	str	r3, [r7, #64]	@ 0x40

      sysclockfreq = pllvco / pllp;
 800182c:	6cfa      	ldr	r2, [r7, #76]	@ 0x4c
 800182e:	6c3b      	ldr	r3, [r7, #64]	@ 0x40
 8001830:	fbb2 f3f3 	udiv	r3, r2, r3
 8001834:	64bb      	str	r3, [r7, #72]	@ 0x48
      break;
 8001836:	e002      	b.n	800183e <HAL_RCC_GetSysClockFreq+0x1f2>
    }
    default:
    {
      sysclockfreq = HSI_VALUE;
 8001838:	4b05      	ldr	r3, [pc, #20]	@ (8001850 <HAL_RCC_GetSysClockFreq+0x204>)
 800183a:	64bb      	str	r3, [r7, #72]	@ 0x48
      break;
 800183c:	bf00      	nop
    }
  }
  return sysclockfreq;
 800183e:	6cbb      	ldr	r3, [r7, #72]	@ 0x48
}
 8001840:	4618      	mov	r0, r3
 8001842:	3750      	adds	r7, #80	@ 0x50
 8001844:	46bd      	mov	sp, r7
 8001846:	e8bd 8fb0 	ldmia.w	sp!, {r4, r5, r7, r8, r9, sl, fp, pc}
 800184a:	bf00      	nop
 800184c:	40023800 	.word	0x40023800
 8001850:	00f42400 	.word	0x00f42400
 8001854:	007a1200 	.word	0x007a1200

08001858 <HAL_RCC_GetHCLKFreq>:
  * @note   The SystemCoreClock CMSIS variable is used to store System Clock Frequency
  *         and updated within this function
  * @retval HCLK frequency
  */
uint32_t HAL_RCC_GetHCLKFreq(void)
{
 8001858:	b480      	push	{r7}
 800185a:	af00      	add	r7, sp, #0
  return SystemCoreClock;
 800185c:	4b03      	ldr	r3, [pc, #12]	@ (800186c <HAL_RCC_GetHCLKFreq+0x14>)
 800185e:	681b      	ldr	r3, [r3, #0]
}
 8001860:	4618      	mov	r0, r3
 8001862:	46bd      	mov	sp, r7
 8001864:	f85d 7b04 	ldr.w	r7, [sp], #4
 8001868:	4770      	bx	lr
 800186a:	bf00      	nop
 800186c:	20000000 	.word	0x20000000

08001870 <HAL_RCC_GetPCLK1Freq>:
  * @note   Each time PCLK1 changes, this function must be called to update the
  *         right PCLK1 value. Otherwise, any configuration based on this function will be incorrect.
  * @retval PCLK1 frequency
  */
uint32_t HAL_RCC_GetPCLK1Freq(void)
{
 8001870:	b580      	push	{r7, lr}
 8001872:	af00      	add	r7, sp, #0
  /* Get HCLK source and Compute PCLK1 frequency ---------------------------*/
  return (HAL_RCC_GetHCLKFreq() >> APBPrescTable[(RCC->CFGR & RCC_CFGR_PPRE1) >> RCC_CFGR_PPRE1_Pos]);
 8001874:	f7ff fff0 	bl	8001858 <HAL_RCC_GetHCLKFreq>
 8001878:	4602      	mov	r2, r0
 800187a:	4b05      	ldr	r3, [pc, #20]	@ (8001890 <HAL_RCC_GetPCLK1Freq+0x20>)
 800187c:	689b      	ldr	r3, [r3, #8]
 800187e:	0a9b      	lsrs	r3, r3, #10
 8001880:	f003 0307 	and.w	r3, r3, #7
 8001884:	4903      	ldr	r1, [pc, #12]	@ (8001894 <HAL_RCC_GetPCLK1Freq+0x24>)
 8001886:	5ccb      	ldrb	r3, [r1, r3]
 8001888:	fa22 f303 	lsr.w	r3, r2, r3
}
 800188c:	4618      	mov	r0, r3
 800188e:	bd80      	pop	{r7, pc}
 8001890:	40023800 	.word	0x40023800
 8001894:	08001ec8 	.word	0x08001ec8

08001898 <HAL_RCC_GetPCLK2Freq>:
  * @note   Each time PCLK2 changes, this function must be called to update the
  *         right PCLK2 value. Otherwise, any configuration based on this function will be incorrect.
  * @retval PCLK2 frequency
  */
uint32_t HAL_RCC_GetPCLK2Freq(void)
{
 8001898:	b580      	push	{r7, lr}
 800189a:	af00      	add	r7, sp, #0
  /* Get HCLK source and Compute PCLK2 frequency ---------------------------*/
  return (HAL_RCC_GetHCLKFreq() >> APBPrescTable[(RCC->CFGR & RCC_CFGR_PPRE2) >> RCC_CFGR_PPRE2_Pos]);
 800189c:	f7ff ffdc 	bl	8001858 <HAL_RCC_GetHCLKFreq>
 80018a0:	4602      	mov	r2, r0
 80018a2:	4b05      	ldr	r3, [pc, #20]	@ (80018b8 <HAL_RCC_GetPCLK2Freq+0x20>)
 80018a4:	689b      	ldr	r3, [r3, #8]
 80018a6:	0b5b      	lsrs	r3, r3, #13
 80018a8:	f003 0307 	and.w	r3, r3, #7
 80018ac:	4903      	ldr	r1, [pc, #12]	@ (80018bc <HAL_RCC_GetPCLK2Freq+0x24>)
 80018ae:	5ccb      	ldrb	r3, [r1, r3]
 80018b0:	fa22 f303 	lsr.w	r3, r2, r3
}
 80018b4:	4618      	mov	r0, r3
 80018b6:	bd80      	pop	{r7, pc}
 80018b8:	40023800 	.word	0x40023800
 80018bc:	08001ec8 	.word	0x08001ec8

080018c0 <HAL_UART_Init>:
  * @param  huart  Pointer to a UART_HandleTypeDef structure that contains
  *                the configuration information for the specified UART module.
  * @retval HAL status
  */
HAL_StatusTypeDef HAL_UART_Init(UART_HandleTypeDef *huart)
{
 80018c0:	b580      	push	{r7, lr}
 80018c2:	b082      	sub	sp, #8
 80018c4:	af00      	add	r7, sp, #0
 80018c6:	6078      	str	r0, [r7, #4]
  /* Check the UART handle allocation */
  if (huart == NULL)
 80018c8:	687b      	ldr	r3, [r7, #4]
 80018ca:	2b00      	cmp	r3, #0
 80018cc:	d101      	bne.n	80018d2 <HAL_UART_Init+0x12>
  {
    return HAL_ERROR;
 80018ce:	2301      	movs	r3, #1
 80018d0:	e042      	b.n	8001958 <HAL_UART_Init+0x98>
    assert_param(IS_UART_INSTANCE(huart->Instance));
  }
  assert_param(IS_UART_WORD_LENGTH(huart->Init.WordLength));
  assert_param(IS_UART_OVERSAMPLING(huart->Init.OverSampling));

  if (huart->gState == HAL_UART_STATE_RESET)
 80018d2:	687b      	ldr	r3, [r7, #4]
 80018d4:	f893 3041 	ldrb.w	r3, [r3, #65]	@ 0x41
 80018d8:	b2db      	uxtb	r3, r3
 80018da:	2b00      	cmp	r3, #0
 80018dc:	d106      	bne.n	80018ec <HAL_UART_Init+0x2c>
  {
    /* Allocate lock resource and initialize it */
    huart->Lock = HAL_UNLOCKED;
 80018de:	687b      	ldr	r3, [r7, #4]
 80018e0:	2200      	movs	r2, #0
 80018e2:	f883 2040 	strb.w	r2, [r3, #64]	@ 0x40

    /* Init the low level hardware */
    huart->MspInitCallback(huart);
#else
    /* Init the low level hardware : GPIO, CLOCK */
    HAL_UART_MspInit(huart);
 80018e6:	6878      	ldr	r0, [r7, #4]
 80018e8:	f7fe ff74 	bl	80007d4 <HAL_UART_MspInit>
#endif /* (USE_HAL_UART_REGISTER_CALLBACKS) */
  }

  huart->gState = HAL_UART_STATE_BUSY;
 80018ec:	687b      	ldr	r3, [r7, #4]
 80018ee:	2224      	movs	r2, #36	@ 0x24
 80018f0:	f883 2041 	strb.w	r2, [r3, #65]	@ 0x41

  /* Disable the peripheral */
  __HAL_UART_DISABLE(huart);
 80018f4:	687b      	ldr	r3, [r7, #4]
 80018f6:	681b      	ldr	r3, [r3, #0]
 80018f8:	68da      	ldr	r2, [r3, #12]
 80018fa:	687b      	ldr	r3, [r7, #4]
 80018fc:	681b      	ldr	r3, [r3, #0]
 80018fe:	f422 5200 	bic.w	r2, r2, #8192	@ 0x2000
 8001902:	60da      	str	r2, [r3, #12]

  /* Set the UART Communication parameters */
  UART_SetConfig(huart);
 8001904:	6878      	ldr	r0, [r7, #4]
 8001906:	f000 f82b 	bl	8001960 <UART_SetConfig>

  /* In asynchronous mode, the following bits must be kept cleared:
     - LINEN and CLKEN bits in the USART_CR2 register,
     - SCEN, HDSEL and IREN  bits in the USART_CR3 register.*/
  CLEAR_BIT(huart->Instance->CR2, (USART_CR2_LINEN | USART_CR2_CLKEN));
 800190a:	687b      	ldr	r3, [r7, #4]
 800190c:	681b      	ldr	r3, [r3, #0]
 800190e:	691a      	ldr	r2, [r3, #16]
 8001910:	687b      	ldr	r3, [r7, #4]
 8001912:	681b      	ldr	r3, [r3, #0]
 8001914:	f422 4290 	bic.w	r2, r2, #18432	@ 0x4800
 8001918:	611a      	str	r2, [r3, #16]
  CLEAR_BIT(huart->Instance->CR3, (USART_CR3_SCEN | USART_CR3_HDSEL | USART_CR3_IREN));
 800191a:	687b      	ldr	r3, [r7, #4]
 800191c:	681b      	ldr	r3, [r3, #0]
 800191e:	695a      	ldr	r2, [r3, #20]
 8001920:	687b      	ldr	r3, [r7, #4]
 8001922:	681b      	ldr	r3, [r3, #0]
 8001924:	f022 022a 	bic.w	r2, r2, #42	@ 0x2a
 8001928:	615a      	str	r2, [r3, #20]

  /* Enable the peripheral */
  __HAL_UART_ENABLE(huart);
 800192a:	687b      	ldr	r3, [r7, #4]
 800192c:	681b      	ldr	r3, [r3, #0]
 800192e:	68da      	ldr	r2, [r3, #12]
 8001930:	687b      	ldr	r3, [r7, #4]
 8001932:	681b      	ldr	r3, [r3, #0]
 8001934:	f442 5200 	orr.w	r2, r2, #8192	@ 0x2000
 8001938:	60da      	str	r2, [r3, #12]

  /* Initialize the UART state */
  huart->ErrorCode = HAL_UART_ERROR_NONE;
 800193a:	687b      	ldr	r3, [r7, #4]
 800193c:	2200      	movs	r2, #0
 800193e:	645a      	str	r2, [r3, #68]	@ 0x44
  huart->gState = HAL_UART_STATE_READY;
 8001940:	687b      	ldr	r3, [r7, #4]
 8001942:	2220      	movs	r2, #32
 8001944:	f883 2041 	strb.w	r2, [r3, #65]	@ 0x41
  huart->RxState = HAL_UART_STATE_READY;
 8001948:	687b      	ldr	r3, [r7, #4]
 800194a:	2220      	movs	r2, #32
 800194c:	f883 2042 	strb.w	r2, [r3, #66]	@ 0x42
  huart->RxEventType = HAL_UART_RXEVENT_TC;
 8001950:	687b      	ldr	r3, [r7, #4]
 8001952:	2200      	movs	r2, #0
 8001954:	635a      	str	r2, [r3, #52]	@ 0x34

  return HAL_OK;
 8001956:	2300      	movs	r3, #0
}
 8001958:	4618      	mov	r0, r3
 800195a:	3708      	adds	r7, #8
 800195c:	46bd      	mov	sp, r7
 800195e:	bd80      	pop	{r7, pc}

08001960 <UART_SetConfig>:
  * @param  huart  Pointer to a UART_HandleTypeDef structure that contains
  *                the configuration information for the specified UART module.
  * @retval None
  */
static void UART_SetConfig(UART_HandleTypeDef *huart)
{
 8001960:	e92d 4fb0 	stmdb	sp!, {r4, r5, r7, r8, r9, sl, fp, lr}
 8001964:	b0c0      	sub	sp, #256	@ 0x100
 8001966:	af00      	add	r7, sp, #0
 8001968:	f8c7 00f4 	str.w	r0, [r7, #244]	@ 0xf4
  assert_param(IS_UART_MODE(huart->Init.Mode));

  /*-------------------------- USART CR2 Configuration -----------------------*/
  /* Configure the UART Stop Bits: Set STOP[13:12] bits
     according to huart->Init.StopBits value */
  MODIFY_REG(huart->Instance->CR2, USART_CR2_STOP, huart->Init.StopBits);
 800196c:	f8d7 30f4 	ldr.w	r3, [r7, #244]	@ 0xf4
 8001970:	681b      	ldr	r3, [r3, #0]
 8001972:	691b      	ldr	r3, [r3, #16]
 8001974:	f423 5040 	bic.w	r0, r3, #12288	@ 0x3000
 8001978:	f8d7 30f4 	ldr.w	r3, [r7, #244]	@ 0xf4
 800197c:	68d9      	ldr	r1, [r3, #12]
 800197e:	f8d7 30f4 	ldr.w	r3, [r7, #244]	@ 0xf4
 8001982:	681a      	ldr	r2, [r3, #0]
 8001984:	ea40 0301 	orr.w	r3, r0, r1
 8001988:	6113      	str	r3, [r2, #16]
     Set the M bits according to huart->Init.WordLength value
     Set PCE and PS bits according to huart->Init.Parity value
     Set TE and RE bits according to huart->Init.Mode value
     Set OVER8 bit according to huart->Init.OverSampling value */

  tmpreg = (uint32_t)huart->Init.WordLength | huart->Init.Parity | huart->Init.Mode | huart->Init.OverSampling;
 800198a:	f8d7 30f4 	ldr.w	r3, [r7, #244]	@ 0xf4
 800198e:	689a      	ldr	r2, [r3, #8]
 8001990:	f8d7 30f4 	ldr.w	r3, [r7, #244]	@ 0xf4
 8001994:	691b      	ldr	r3, [r3, #16]
 8001996:	431a      	orrs	r2, r3
 8001998:	f8d7 30f4 	ldr.w	r3, [r7, #244]	@ 0xf4
 800199c:	695b      	ldr	r3, [r3, #20]
 800199e:	431a      	orrs	r2, r3
 80019a0:	f8d7 30f4 	ldr.w	r3, [r7, #244]	@ 0xf4
 80019a4:	69db      	ldr	r3, [r3, #28]
 80019a6:	4313      	orrs	r3, r2
 80019a8:	f8c7 30f8 	str.w	r3, [r7, #248]	@ 0xf8
  MODIFY_REG(huart->Instance->CR1,
 80019ac:	f8d7 30f4 	ldr.w	r3, [r7, #244]	@ 0xf4
 80019b0:	681b      	ldr	r3, [r3, #0]
 80019b2:	68db      	ldr	r3, [r3, #12]
 80019b4:	f423 4116 	bic.w	r1, r3, #38400	@ 0x9600
 80019b8:	f021 010c 	bic.w	r1, r1, #12
 80019bc:	f8d7 30f4 	ldr.w	r3, [r7, #244]	@ 0xf4
 80019c0:	681a      	ldr	r2, [r3, #0]
 80019c2:	f8d7 30f8 	ldr.w	r3, [r7, #248]	@ 0xf8
 80019c6:	430b      	orrs	r3, r1
 80019c8:	60d3      	str	r3, [r2, #12]
             (uint32_t)(USART_CR1_M | USART_CR1_PCE | USART_CR1_PS | USART_CR1_TE | USART_CR1_RE | USART_CR1_OVER8),
             tmpreg);

  /*-------------------------- USART CR3 Configuration -----------------------*/
  /* Configure the UART HFC: Set CTSE and RTSE bits according to huart->Init.HwFlowCtl value */
  MODIFY_REG(huart->Instance->CR3, (USART_CR3_RTSE | USART_CR3_CTSE), huart->Init.HwFlowCtl);
 80019ca:	f8d7 30f4 	ldr.w	r3, [r7, #244]	@ 0xf4
 80019ce:	681b      	ldr	r3, [r3, #0]
 80019d0:	695b      	ldr	r3, [r3, #20]
 80019d2:	f423 7040 	bic.w	r0, r3, #768	@ 0x300
 80019d6:	f8d7 30f4 	ldr.w	r3, [r7, #244]	@ 0xf4
 80019da:	6999      	ldr	r1, [r3, #24]
 80019dc:	f8d7 30f4 	ldr.w	r3, [r7, #244]	@ 0xf4
 80019e0:	681a      	ldr	r2, [r3, #0]
 80019e2:	ea40 0301 	orr.w	r3, r0, r1
 80019e6:	6153      	str	r3, [r2, #20]
    if ((huart->Instance == USART1) || (huart->Instance == USART6) || (huart->Instance == UART9) || (huart->Instance == UART10))
    {
      pclk = HAL_RCC_GetPCLK2Freq();
    }
#elif defined(USART6)
    if ((huart->Instance == USART1) || (huart->Instance == USART6))
 80019e8:	f8d7 30f4 	ldr.w	r3, [r7, #244]	@ 0xf4
 80019ec:	681a      	ldr	r2, [r3, #0]
 80019ee:	4b8f      	ldr	r3, [pc, #572]	@ (8001c2c <UART_SetConfig+0x2cc>)
 80019f0:	429a      	cmp	r2, r3
 80019f2:	d005      	beq.n	8001a00 <UART_SetConfig+0xa0>
 80019f4:	f8d7 30f4 	ldr.w	r3, [r7, #244]	@ 0xf4
 80019f8:	681a      	ldr	r2, [r3, #0]
 80019fa:	4b8d      	ldr	r3, [pc, #564]	@ (8001c30 <UART_SetConfig+0x2d0>)
 80019fc:	429a      	cmp	r2, r3
 80019fe:	d104      	bne.n	8001a0a <UART_SetConfig+0xaa>
    {
      pclk = HAL_RCC_GetPCLK2Freq();
 8001a00:	f7ff ff4a 	bl	8001898 <HAL_RCC_GetPCLK2Freq>
 8001a04:	f8c7 00fc 	str.w	r0, [r7, #252]	@ 0xfc
 8001a08:	e003      	b.n	8001a12 <UART_SetConfig+0xb2>
      pclk = HAL_RCC_GetPCLK2Freq();
    }
#endif /* USART6 */
    else
    {
      pclk = HAL_RCC_GetPCLK1Freq();
 8001a0a:	f7ff ff31 	bl	8001870 <HAL_RCC_GetPCLK1Freq>
 8001a0e:	f8c7 00fc 	str.w	r0, [r7, #252]	@ 0xfc
    }
  /*-------------------------- USART BRR Configuration ---------------------*/
  if (huart->Init.OverSampling == UART_OVERSAMPLING_8)
 8001a12:	f8d7 30f4 	ldr.w	r3, [r7, #244]	@ 0xf4
 8001a16:	69db      	ldr	r3, [r3, #28]
 8001a18:	f5b3 4f00 	cmp.w	r3, #32768	@ 0x8000
 8001a1c:	f040 810c 	bne.w	8001c38 <UART_SetConfig+0x2d8>
  {
    huart->Instance->BRR = UART_BRR_SAMPLING8(pclk, huart->Init.BaudRate);
 8001a20:	f8d7 30fc 	ldr.w	r3, [r7, #252]	@ 0xfc
 8001a24:	2200      	movs	r2, #0
 8001a26:	f8c7 30e8 	str.w	r3, [r7, #232]	@ 0xe8
 8001a2a:	f8c7 20ec 	str.w	r2, [r7, #236]	@ 0xec
 8001a2e:	e9d7 453a 	ldrd	r4, r5, [r7, #232]	@ 0xe8
 8001a32:	4622      	mov	r2, r4
 8001a34:	462b      	mov	r3, r5
 8001a36:	1891      	adds	r1, r2, r2
 8001a38:	65b9      	str	r1, [r7, #88]	@ 0x58
 8001a3a:	415b      	adcs	r3, r3
 8001a3c:	65fb      	str	r3, [r7, #92]	@ 0x5c
 8001a3e:	e9d7 2316 	ldrd	r2, r3, [r7, #88]	@ 0x58
 8001a42:	4621      	mov	r1, r4
 8001a44:	eb12 0801 	adds.w	r8, r2, r1
 8001a48:	4629      	mov	r1, r5
 8001a4a:	eb43 0901 	adc.w	r9, r3, r1
 8001a4e:	f04f 0200 	mov.w	r2, #0
 8001a52:	f04f 0300 	mov.w	r3, #0
 8001a56:	ea4f 03c9 	mov.w	r3, r9, lsl #3
 8001a5a:	ea43 7358 	orr.w	r3, r3, r8, lsr #29
 8001a5e:	ea4f 02c8 	mov.w	r2, r8, lsl #3
 8001a62:	4690      	mov	r8, r2
 8001a64:	4699      	mov	r9, r3
 8001a66:	4623      	mov	r3, r4
 8001a68:	eb18 0303 	adds.w	r3, r8, r3
 8001a6c:	f8c7 30e0 	str.w	r3, [r7, #224]	@ 0xe0
 8001a70:	462b      	mov	r3, r5
 8001a72:	eb49 0303 	adc.w	r3, r9, r3
 8001a76:	f8c7 30e4 	str.w	r3, [r7, #228]	@ 0xe4
 8001a7a:	f8d7 30f4 	ldr.w	r3, [r7, #244]	@ 0xf4
 8001a7e:	685b      	ldr	r3, [r3, #4]
 8001a80:	2200      	movs	r2, #0
 8001a82:	f8c7 30d8 	str.w	r3, [r7, #216]	@ 0xd8
 8001a86:	f8c7 20dc 	str.w	r2, [r7, #220]	@ 0xdc
 8001a8a:	e9d7 1236 	ldrd	r1, r2, [r7, #216]	@ 0xd8
 8001a8e:	460b      	mov	r3, r1
 8001a90:	18db      	adds	r3, r3, r3
 8001a92:	653b      	str	r3, [r7, #80]	@ 0x50
 8001a94:	4613      	mov	r3, r2
 8001a96:	eb42 0303 	adc.w	r3, r2, r3
 8001a9a:	657b      	str	r3, [r7, #84]	@ 0x54
 8001a9c:	e9d7 2314 	ldrd	r2, r3, [r7, #80]	@ 0x50
 8001aa0:	e9d7 0138 	ldrd	r0, r1, [r7, #224]	@ 0xe0
 8001aa4:	f7fe fb96 	bl	80001d4 <__aeabi_uldivmod>
 8001aa8:	4602      	mov	r2, r0
 8001aaa:	460b      	mov	r3, r1
 8001aac:	4b61      	ldr	r3, [pc, #388]	@ (8001c34 <UART_SetConfig+0x2d4>)
 8001aae:	fba3 2302 	umull	r2, r3, r3, r2
 8001ab2:	095b      	lsrs	r3, r3, #5
 8001ab4:	011c      	lsls	r4, r3, #4
 8001ab6:	f8d7 30fc 	ldr.w	r3, [r7, #252]	@ 0xfc
 8001aba:	2200      	movs	r2, #0
 8001abc:	f8c7 30d0 	str.w	r3, [r7, #208]	@ 0xd0
 8001ac0:	f8c7 20d4 	str.w	r2, [r7, #212]	@ 0xd4
 8001ac4:	e9d7 8934 	ldrd	r8, r9, [r7, #208]	@ 0xd0
 8001ac8:	4642      	mov	r2, r8
 8001aca:	464b      	mov	r3, r9
 8001acc:	1891      	adds	r1, r2, r2
 8001ace:	64b9      	str	r1, [r7, #72]	@ 0x48
 8001ad0:	415b      	adcs	r3, r3
 8001ad2:	64fb      	str	r3, [r7, #76]	@ 0x4c
 8001ad4:	e9d7 2312 	ldrd	r2, r3, [r7, #72]	@ 0x48
 8001ad8:	4641      	mov	r1, r8
 8001ada:	eb12 0a01 	adds.w	sl, r2, r1
 8001ade:	4649      	mov	r1, r9
 8001ae0:	eb43 0b01 	adc.w	fp, r3, r1
 8001ae4:	f04f 0200 	mov.w	r2, #0
 8001ae8:	f04f 0300 	mov.w	r3, #0
 8001aec:	ea4f 03cb 	mov.w	r3, fp, lsl #3
 8001af0:	ea43 735a 	orr.w	r3, r3, sl, lsr #29
 8001af4:	ea4f 02ca 	mov.w	r2, sl, lsl #3
 8001af8:	4692      	mov	sl, r2
 8001afa:	469b      	mov	fp, r3
 8001afc:	4643      	mov	r3, r8
 8001afe:	eb1a 0303 	adds.w	r3, sl, r3
 8001b02:	f8c7 30c8 	str.w	r3, [r7, #200]	@ 0xc8
 8001b06:	464b      	mov	r3, r9
 8001b08:	eb4b 0303 	adc.w	r3, fp, r3
 8001b0c:	f8c7 30cc 	str.w	r3, [r7, #204]	@ 0xcc
 8001b10:	f8d7 30f4 	ldr.w	r3, [r7, #244]	@ 0xf4
 8001b14:	685b      	ldr	r3, [r3, #4]
 8001b16:	2200      	movs	r2, #0
 8001b18:	f8c7 30c0 	str.w	r3, [r7, #192]	@ 0xc0
 8001b1c:	f8c7 20c4 	str.w	r2, [r7, #196]	@ 0xc4
 8001b20:	e9d7 1230 	ldrd	r1, r2, [r7, #192]	@ 0xc0
 8001b24:	460b      	mov	r3, r1
 8001b26:	18db      	adds	r3, r3, r3
 8001b28:	643b      	str	r3, [r7, #64]	@ 0x40
 8001b2a:	4613      	mov	r3, r2
 8001b2c:	eb42 0303 	adc.w	r3, r2, r3
 8001b30:	647b      	str	r3, [r7, #68]	@ 0x44
 8001b32:	e9d7 2310 	ldrd	r2, r3, [r7, #64]	@ 0x40
 8001b36:	e9d7 0132 	ldrd	r0, r1, [r7, #200]	@ 0xc8
 8001b3a:	f7fe fb4b 	bl	80001d4 <__aeabi_uldivmod>
 8001b3e:	4602      	mov	r2, r0
 8001b40:	460b      	mov	r3, r1
 8001b42:	4611      	mov	r1, r2
 8001b44:	4b3b      	ldr	r3, [pc, #236]	@ (8001c34 <UART_SetConfig+0x2d4>)
 8001b46:	fba3 2301 	umull	r2, r3, r3, r1
 8001b4a:	095b      	lsrs	r3, r3, #5
 8001b4c:	2264      	movs	r2, #100	@ 0x64
 8001b4e:	fb02 f303 	mul.w	r3, r2, r3
 8001b52:	1acb      	subs	r3, r1, r3
 8001b54:	00db      	lsls	r3, r3, #3
 8001b56:	f103 0232 	add.w	r2, r3, #50	@ 0x32
 8001b5a:	4b36      	ldr	r3, [pc, #216]	@ (8001c34 <UART_SetConfig+0x2d4>)
 8001b5c:	fba3 2302 	umull	r2, r3, r3, r2
 8001b60:	095b      	lsrs	r3, r3, #5
 8001b62:	005b      	lsls	r3, r3, #1
 8001b64:	f403 73f8 	and.w	r3, r3, #496	@ 0x1f0
 8001b68:	441c      	add	r4, r3
 8001b6a:	f8d7 30fc 	ldr.w	r3, [r7, #252]	@ 0xfc
 8001b6e:	2200      	movs	r2, #0
 8001b70:	f8c7 30b8 	str.w	r3, [r7, #184]	@ 0xb8
 8001b74:	f8c7 20bc 	str.w	r2, [r7, #188]	@ 0xbc
 8001b78:	e9d7 892e 	ldrd	r8, r9, [r7, #184]	@ 0xb8
 8001b7c:	4642      	mov	r2, r8
 8001b7e:	464b      	mov	r3, r9
 8001b80:	1891      	adds	r1, r2, r2
 8001b82:	63b9      	str	r1, [r7, #56]	@ 0x38
 8001b84:	415b      	adcs	r3, r3
 8001b86:	63fb      	str	r3, [r7, #60]	@ 0x3c
 8001b88:	e9d7 230e 	ldrd	r2, r3, [r7, #56]	@ 0x38
 8001b8c:	4641      	mov	r1, r8
 8001b8e:	1851      	adds	r1, r2, r1
 8001b90:	6339      	str	r1, [r7, #48]	@ 0x30
 8001b92:	4649      	mov	r1, r9
 8001b94:	414b      	adcs	r3, r1
 8001b96:	637b      	str	r3, [r7, #52]	@ 0x34
 8001b98:	f04f 0200 	mov.w	r2, #0
 8001b9c:	f04f 0300 	mov.w	r3, #0
 8001ba0:	e9d7 ab0c 	ldrd	sl, fp, [r7, #48]	@ 0x30
 8001ba4:	4659      	mov	r1, fp
 8001ba6:	00cb      	lsls	r3, r1, #3
 8001ba8:	4651      	mov	r1, sl
 8001baa:	ea43 7351 	orr.w	r3, r3, r1, lsr #29
 8001bae:	4651      	mov	r1, sl
 8001bb0:	00ca      	lsls	r2, r1, #3
 8001bb2:	4610      	mov	r0, r2
 8001bb4:	4619      	mov	r1, r3
 8001bb6:	4603      	mov	r3, r0
 8001bb8:	4642      	mov	r2, r8
 8001bba:	189b      	adds	r3, r3, r2
 8001bbc:	f8c7 30b0 	str.w	r3, [r7, #176]	@ 0xb0
 8001bc0:	464b      	mov	r3, r9
 8001bc2:	460a      	mov	r2, r1
 8001bc4:	eb42 0303 	adc.w	r3, r2, r3
 8001bc8:	f8c7 30b4 	str.w	r3, [r7, #180]	@ 0xb4
 8001bcc:	f8d7 30f4 	ldr.w	r3, [r7, #244]	@ 0xf4
 8001bd0:	685b      	ldr	r3, [r3, #4]
 8001bd2:	2200      	movs	r2, #0
 8001bd4:	f8c7 30a8 	str.w	r3, [r7, #168]	@ 0xa8
 8001bd8:	f8c7 20ac 	str.w	r2, [r7, #172]	@ 0xac
 8001bdc:	e9d7 122a 	ldrd	r1, r2, [r7, #168]	@ 0xa8
 8001be0:	460b      	mov	r3, r1
 8001be2:	18db      	adds	r3, r3, r3
 8001be4:	62bb      	str	r3, [r7, #40]	@ 0x28
 8001be6:	4613      	mov	r3, r2
 8001be8:	eb42 0303 	adc.w	r3, r2, r3
 8001bec:	62fb      	str	r3, [r7, #44]	@ 0x2c
 8001bee:	e9d7 230a 	ldrd	r2, r3, [r7, #40]	@ 0x28
 8001bf2:	e9d7 012c 	ldrd	r0, r1, [r7, #176]	@ 0xb0
 8001bf6:	f7fe faed 	bl	80001d4 <__aeabi_uldivmod>
 8001bfa:	4602      	mov	r2, r0
 8001bfc:	460b      	mov	r3, r1
 8001bfe:	4b0d      	ldr	r3, [pc, #52]	@ (8001c34 <UART_SetConfig+0x2d4>)
 8001c00:	fba3 1302 	umull	r1, r3, r3, r2
 8001c04:	095b      	lsrs	r3, r3, #5
 8001c06:	2164      	movs	r1, #100	@ 0x64
 8001c08:	fb01 f303 	mul.w	r3, r1, r3
 8001c0c:	1ad3      	subs	r3, r2, r3
 8001c0e:	00db      	lsls	r3, r3, #3
 8001c10:	3332      	adds	r3, #50	@ 0x32
 8001c12:	4a08      	ldr	r2, [pc, #32]	@ (8001c34 <UART_SetConfig+0x2d4>)
 8001c14:	fba2 2303 	umull	r2, r3, r2, r3
 8001c18:	095b      	lsrs	r3, r3, #5
 8001c1a:	f003 0207 	and.w	r2, r3, #7
 8001c1e:	f8d7 30f4 	ldr.w	r3, [r7, #244]	@ 0xf4
 8001c22:	681b      	ldr	r3, [r3, #0]
 8001c24:	4422      	add	r2, r4
 8001c26:	609a      	str	r2, [r3, #8]
  }
  else
  {
    huart->Instance->BRR = UART_BRR_SAMPLING16(pclk, huart->Init.BaudRate);
  }
}
 8001c28:	e106      	b.n	8001e38 <UART_SetConfig+0x4d8>
 8001c2a:	bf00      	nop
 8001c2c:	40011000 	.word	0x40011000
 8001c30:	40011400 	.word	0x40011400
 8001c34:	51eb851f 	.word	0x51eb851f
    huart->Instance->BRR = UART_BRR_SAMPLING16(pclk, huart->Init.BaudRate);
 8001c38:	f8d7 30fc 	ldr.w	r3, [r7, #252]	@ 0xfc
 8001c3c:	2200      	movs	r2, #0
 8001c3e:	f8c7 30a0 	str.w	r3, [r7, #160]	@ 0xa0
 8001c42:	f8c7 20a4 	str.w	r2, [r7, #164]	@ 0xa4
 8001c46:	e9d7 8928 	ldrd	r8, r9, [r7, #160]	@ 0xa0
 8001c4a:	4642      	mov	r2, r8
 8001c4c:	464b      	mov	r3, r9
 8001c4e:	1891      	adds	r1, r2, r2
 8001c50:	6239      	str	r1, [r7, #32]
 8001c52:	415b      	adcs	r3, r3
 8001c54:	627b      	str	r3, [r7, #36]	@ 0x24
 8001c56:	e9d7 2308 	ldrd	r2, r3, [r7, #32]
 8001c5a:	4641      	mov	r1, r8
 8001c5c:	1854      	adds	r4, r2, r1
 8001c5e:	4649      	mov	r1, r9
 8001c60:	eb43 0501 	adc.w	r5, r3, r1
 8001c64:	f04f 0200 	mov.w	r2, #0
 8001c68:	f04f 0300 	mov.w	r3, #0
 8001c6c:	00eb      	lsls	r3, r5, #3
 8001c6e:	ea43 7354 	orr.w	r3, r3, r4, lsr #29
 8001c72:	00e2      	lsls	r2, r4, #3
 8001c74:	4614      	mov	r4, r2
 8001c76:	461d      	mov	r5, r3
 8001c78:	4643      	mov	r3, r8
 8001c7a:	18e3      	adds	r3, r4, r3
 8001c7c:	f8c7 3098 	str.w	r3, [r7, #152]	@ 0x98
 8001c80:	464b      	mov	r3, r9
 8001c82:	eb45 0303 	adc.w	r3, r5, r3
 8001c86:	f8c7 309c 	str.w	r3, [r7, #156]	@ 0x9c
 8001c8a:	f8d7 30f4 	ldr.w	r3, [r7, #244]	@ 0xf4
 8001c8e:	685b      	ldr	r3, [r3, #4]
 8001c90:	2200      	movs	r2, #0
 8001c92:	f8c7 3090 	str.w	r3, [r7, #144]	@ 0x90
 8001c96:	f8c7 2094 	str.w	r2, [r7, #148]	@ 0x94
 8001c9a:	f04f 0200 	mov.w	r2, #0
 8001c9e:	f04f 0300 	mov.w	r3, #0
 8001ca2:	e9d7 4524 	ldrd	r4, r5, [r7, #144]	@ 0x90
 8001ca6:	4629      	mov	r1, r5
 8001ca8:	008b      	lsls	r3, r1, #2
 8001caa:	4621      	mov	r1, r4
 8001cac:	ea43 7391 	orr.w	r3, r3, r1, lsr #30
 8001cb0:	4621      	mov	r1, r4
 8001cb2:	008a      	lsls	r2, r1, #2
 8001cb4:	e9d7 0126 	ldrd	r0, r1, [r7, #152]	@ 0x98
 8001cb8:	f7fe fa8c 	bl	80001d4 <__aeabi_uldivmod>
 8001cbc:	4602      	mov	r2, r0
 8001cbe:	460b      	mov	r3, r1
 8001cc0:	4b60      	ldr	r3, [pc, #384]	@ (8001e44 <UART_SetConfig+0x4e4>)
 8001cc2:	fba3 2302 	umull	r2, r3, r3, r2
 8001cc6:	095b      	lsrs	r3, r3, #5
 8001cc8:	011c      	lsls	r4, r3, #4
 8001cca:	f8d7 30fc 	ldr.w	r3, [r7, #252]	@ 0xfc
 8001cce:	2200      	movs	r2, #0
 8001cd0:	f8c7 3088 	str.w	r3, [r7, #136]	@ 0x88
 8001cd4:	f8c7 208c 	str.w	r2, [r7, #140]	@ 0x8c
 8001cd8:	e9d7 8922 	ldrd	r8, r9, [r7, #136]	@ 0x88
 8001cdc:	4642      	mov	r2, r8
 8001cde:	464b      	mov	r3, r9
 8001ce0:	1891      	adds	r1, r2, r2
 8001ce2:	61b9      	str	r1, [r7, #24]
 8001ce4:	415b      	adcs	r3, r3
 8001ce6:	61fb      	str	r3, [r7, #28]
 8001ce8:	e9d7 2306 	ldrd	r2, r3, [r7, #24]
 8001cec:	4641      	mov	r1, r8
 8001cee:	1851      	adds	r1, r2, r1
 8001cf0:	6139      	str	r1, [r7, #16]
 8001cf2:	4649      	mov	r1, r9
 8001cf4:	414b      	adcs	r3, r1
 8001cf6:	617b      	str	r3, [r7, #20]
 8001cf8:	f04f 0200 	mov.w	r2, #0
 8001cfc:	f04f 0300 	mov.w	r3, #0
 8001d00:	e9d7 ab04 	ldrd	sl, fp, [r7, #16]
 8001d04:	4659      	mov	r1, fp
 8001d06:	00cb      	lsls	r3, r1, #3
 8001d08:	4651      	mov	r1, sl
 8001d0a:	ea43 7351 	orr.w	r3, r3, r1, lsr #29
 8001d0e:	4651      	mov	r1, sl
 8001d10:	00ca      	lsls	r2, r1, #3
 8001d12:	4610      	mov	r0, r2
 8001d14:	4619      	mov	r1, r3
 8001d16:	4603      	mov	r3, r0
 8001d18:	4642      	mov	r2, r8
 8001d1a:	189b      	adds	r3, r3, r2
 8001d1c:	f8c7 3080 	str.w	r3, [r7, #128]	@ 0x80
 8001d20:	464b      	mov	r3, r9
 8001d22:	460a      	mov	r2, r1
 8001d24:	eb42 0303 	adc.w	r3, r2, r3
 8001d28:	f8c7 3084 	str.w	r3, [r7, #132]	@ 0x84
 8001d2c:	f8d7 30f4 	ldr.w	r3, [r7, #244]	@ 0xf4
 8001d30:	685b      	ldr	r3, [r3, #4]
 8001d32:	2200      	movs	r2, #0
 8001d34:	67bb      	str	r3, [r7, #120]	@ 0x78
 8001d36:	67fa      	str	r2, [r7, #124]	@ 0x7c
 8001d38:	f04f 0200 	mov.w	r2, #0
 8001d3c:	f04f 0300 	mov.w	r3, #0
 8001d40:	e9d7 891e 	ldrd	r8, r9, [r7, #120]	@ 0x78
 8001d44:	4649      	mov	r1, r9
 8001d46:	008b      	lsls	r3, r1, #2
 8001d48:	4641      	mov	r1, r8
 8001d4a:	ea43 7391 	orr.w	r3, r3, r1, lsr #30
 8001d4e:	4641      	mov	r1, r8
 8001d50:	008a      	lsls	r2, r1, #2
 8001d52:	e9d7 0120 	ldrd	r0, r1, [r7, #128]	@ 0x80
 8001d56:	f7fe fa3d 	bl	80001d4 <__aeabi_uldivmod>
 8001d5a:	4602      	mov	r2, r0
 8001d5c:	460b      	mov	r3, r1
 8001d5e:	4611      	mov	r1, r2
 8001d60:	4b38      	ldr	r3, [pc, #224]	@ (8001e44 <UART_SetConfig+0x4e4>)
 8001d62:	fba3 2301 	umull	r2, r3, r3, r1
 8001d66:	095b      	lsrs	r3, r3, #5
 8001d68:	2264      	movs	r2, #100	@ 0x64
 8001d6a:	fb02 f303 	mul.w	r3, r2, r3
 8001d6e:	1acb      	subs	r3, r1, r3
 8001d70:	011b      	lsls	r3, r3, #4
 8001d72:	3332      	adds	r3, #50	@ 0x32
 8001d74:	4a33      	ldr	r2, [pc, #204]	@ (8001e44 <UART_SetConfig+0x4e4>)
 8001d76:	fba2 2303 	umull	r2, r3, r2, r3
 8001d7a:	095b      	lsrs	r3, r3, #5
 8001d7c:	f003 03f0 	and.w	r3, r3, #240	@ 0xf0
 8001d80:	441c      	add	r4, r3
 8001d82:	f8d7 30fc 	ldr.w	r3, [r7, #252]	@ 0xfc
 8001d86:	2200      	movs	r2, #0
 8001d88:	673b      	str	r3, [r7, #112]	@ 0x70
 8001d8a:	677a      	str	r2, [r7, #116]	@ 0x74
 8001d8c:	e9d7 891c 	ldrd	r8, r9, [r7, #112]	@ 0x70
 8001d90:	4642      	mov	r2, r8
 8001d92:	464b      	mov	r3, r9
 8001d94:	1891      	adds	r1, r2, r2
 8001d96:	60b9      	str	r1, [r7, #8]
 8001d98:	415b      	adcs	r3, r3
 8001d9a:	60fb      	str	r3, [r7, #12]
 8001d9c:	e9d7 2302 	ldrd	r2, r3, [r7, #8]
 8001da0:	4641      	mov	r1, r8
 8001da2:	1851      	adds	r1, r2, r1
 8001da4:	6039      	str	r1, [r7, #0]
 8001da6:	4649      	mov	r1, r9
 8001da8:	414b      	adcs	r3, r1
 8001daa:	607b      	str	r3, [r7, #4]
 8001dac:	f04f 0200 	mov.w	r2, #0
 8001db0:	f04f 0300 	mov.w	r3, #0
 8001db4:	e9d7 ab00 	ldrd	sl, fp, [r7]
 8001db8:	4659      	mov	r1, fp
 8001dba:	00cb      	lsls	r3, r1, #3
 8001dbc:	4651      	mov	r1, sl
 8001dbe:	ea43 7351 	orr.w	r3, r3, r1, lsr #29
 8001dc2:	4651      	mov	r1, sl
 8001dc4:	00ca      	lsls	r2, r1, #3
 8001dc6:	4610      	mov	r0, r2
 8001dc8:	4619      	mov	r1, r3
 8001dca:	4603      	mov	r3, r0
 8001dcc:	4642      	mov	r2, r8
 8001dce:	189b      	adds	r3, r3, r2
 8001dd0:	66bb      	str	r3, [r7, #104]	@ 0x68
 8001dd2:	464b      	mov	r3, r9
 8001dd4:	460a      	mov	r2, r1
 8001dd6:	eb42 0303 	adc.w	r3, r2, r3
 8001dda:	66fb      	str	r3, [r7, #108]	@ 0x6c
 8001ddc:	f8d7 30f4 	ldr.w	r3, [r7, #244]	@ 0xf4
 8001de0:	685b      	ldr	r3, [r3, #4]
 8001de2:	2200      	movs	r2, #0
 8001de4:	663b      	str	r3, [r7, #96]	@ 0x60
 8001de6:	667a      	str	r2, [r7, #100]	@ 0x64
 8001de8:	f04f 0200 	mov.w	r2, #0
 8001dec:	f04f 0300 	mov.w	r3, #0
 8001df0:	e9d7 8918 	ldrd	r8, r9, [r7, #96]	@ 0x60
 8001df4:	4649      	mov	r1, r9
 8001df6:	008b      	lsls	r3, r1, #2
 8001df8:	4641      	mov	r1, r8
 8001dfa:	ea43 7391 	orr.w	r3, r3, r1, lsr #30
 8001dfe:	4641      	mov	r1, r8
 8001e00:	008a      	lsls	r2, r1, #2
 8001e02:	e9d7 011a 	ldrd	r0, r1, [r7, #104]	@ 0x68
 8001e06:	f7fe f9e5 	bl	80001d4 <__aeabi_uldivmod>
 8001e0a:	4602      	mov	r2, r0
 8001e0c:	460b      	mov	r3, r1
 8001e0e:	4b0d      	ldr	r3, [pc, #52]	@ (8001e44 <UART_SetConfig+0x4e4>)
 8001e10:	fba3 1302 	umull	r1, r3, r3, r2
 8001e14:	095b      	lsrs	r3, r3, #5
 8001e16:	2164      	movs	r1, #100	@ 0x64
 8001e18:	fb01 f303 	mul.w	r3, r1, r3
 8001e1c:	1ad3      	subs	r3, r2, r3
 8001e1e:	011b      	lsls	r3, r3, #4
 8001e20:	3332      	adds	r3, #50	@ 0x32
 8001e22:	4a08      	ldr	r2, [pc, #32]	@ (8001e44 <UART_SetConfig+0x4e4>)
 8001e24:	fba2 2303 	umull	r2, r3, r2, r3
 8001e28:	095b      	lsrs	r3, r3, #5
 8001e2a:	f003 020f 	and.w	r2, r3, #15
 8001e2e:	f8d7 30f4 	ldr.w	r3, [r7, #244]	@ 0xf4
 8001e32:	681b      	ldr	r3, [r3, #0]
 8001e34:	4422      	add	r2, r4
 8001e36:	609a      	str	r2, [r3, #8]
}
 8001e38:	bf00      	nop
 8001e3a:	f507 7780 	add.w	r7, r7, #256	@ 0x100
 8001e3e:	46bd      	mov	sp, r7
 8001e40:	e8bd 8fb0 	ldmia.w	sp!, {r4, r5, r7, r8, r9, sl, fp, pc}
 8001e44:	51eb851f 	.word	0x51eb851f

08001e48 <memset>:
 8001e48:	4402      	add	r2, r0
 8001e4a:	4603      	mov	r3, r0
 8001e4c:	4293      	cmp	r3, r2
 8001e4e:	d100      	bne.n	8001e52 <memset+0xa>
 8001e50:	4770      	bx	lr
 8001e52:	f803 1b01 	strb.w	r1, [r3], #1
 8001e56:	e7f9      	b.n	8001e4c <memset+0x4>

08001e58 <__libc_init_array>:
 8001e58:	b570      	push	{r4, r5, r6, lr}
 8001e5a:	4d0d      	ldr	r5, [pc, #52]	@ (8001e90 <__libc_init_array+0x38>)
 8001e5c:	4c0d      	ldr	r4, [pc, #52]	@ (8001e94 <__libc_init_array+0x3c>)
 8001e5e:	1b64      	subs	r4, r4, r5
 8001e60:	10a4      	asrs	r4, r4, #2
 8001e62:	2600      	movs	r6, #0
 8001e64:	42a6      	cmp	r6, r4
 8001e66:	d109      	bne.n	8001e7c <__libc_init_array+0x24>
 8001e68:	4d0b      	ldr	r5, [pc, #44]	@ (8001e98 <__libc_init_array+0x40>)
 8001e6a:	4c0c      	ldr	r4, [pc, #48]	@ (8001e9c <__libc_init_array+0x44>)
 8001e6c:	f000 f818 	bl	8001ea0 <_init>
 8001e70:	1b64      	subs	r4, r4, r5
 8001e72:	10a4      	asrs	r4, r4, #2
 8001e74:	2600      	movs	r6, #0
 8001e76:	42a6      	cmp	r6, r4
 8001e78:	d105      	bne.n	8001e86 <__libc_init_array+0x2e>
 8001e7a:	bd70      	pop	{r4, r5, r6, pc}
 8001e7c:	f855 3b04 	ldr.w	r3, [r5], #4
 8001e80:	4798      	blx	r3
 8001e82:	3601      	adds	r6, #1
 8001e84:	e7ee      	b.n	8001e64 <__libc_init_array+0xc>
 8001e86:	f855 3b04 	ldr.w	r3, [r5], #4
 8001e8a:	4798      	blx	r3
 8001e8c:	3601      	adds	r6, #1
 8001e8e:	e7f2      	b.n	8001e76 <__libc_init_array+0x1e>
 8001e90:	08001ed8 	.word	0x08001ed8
 8001e94:	08001ed8 	.word	0x08001ed8
 8001e98:	08001ed8 	.word	0x08001ed8
 8001e9c:	08001edc 	.word	0x08001edc

08001ea0 <_init>:
 8001ea0:	b5f8      	push	{r3, r4, r5, r6, r7, lr}
 8001ea2:	bf00      	nop
 8001ea4:	bcf8      	pop	{r3, r4, r5, r6, r7}
 8001ea6:	bc08      	pop	{r3}
 8001ea8:	469e      	mov	lr, r3
 8001eaa:	4770      	bx	lr

08001eac <_fini>:
 8001eac:	b5f8      	push	{r3, r4, r5, r6, r7, lr}
 8001eae:	bf00      	nop
 8001eb0:	bcf8      	pop	{r3, r4, r5, r6, r7}
 8001eb2:	bc08      	pop	{r3}
 8001eb4:	469e      	mov	lr, r3
 8001eb6:	4770      	bx	lr
